(lp0
(lp1
cnumpy.core.multiarray
_reconstruct
p2
(cnumpy
ndarray
p3
(I0
tp4
S'b'
p5
tp6
Rp7
(I1
(I3
tp8
cnumpy
dtype
p9
(S'f8'
p10
I0
I1
tp11
Rp12
(I3
S'<'
p13
NNNI-1
I-1
I0
tp14
bI00
S"\xe7\xf8\x9f\xf6\xff\xffH@\x0bH\x804\n\xd7'@\xea)\xd17=D\xc9\xbf"
p15
tp16
bag2
(g3
(I0
tp17
g5
tp18
Rp19
(I1
(I3
tp20
g12
I00
S"\x9c\xcb\xbd\xaf\xf8\x01I@\x916\x83mv\xd5'@\xe2$\xb0\xb4\xf7\xf7\xcf\xbf"
p21
tp22
bag2
(g3
(I0
tp23
g5
tp24
Rp25
(I1
(I3
tp26
g12
I00
S"\x18_\x92\xa6\xe3\x00I@\x9e\xdd\x08\x18\x91\xd6'@|\x92\xb4\x0b\xf2>\xcc\xbf"
p27
tp28
bag2
(g3
(I0
tp29
g5
tp30
Rp31
(I1
(I3
tp32
g12
I00
S"\xbf\xf7\xe2\xab[&I@}>\x0f6\xf2\xb4'@|\x92\xb4\x0b\xf2>\xcc\xbf"
p33
tp34
bag2
(g3
(I0
tp35
g5
tp36
Rp37
(I1
(I3
tp38
g12
I00
S"g\x903\xb1\xd3KI@]\x9f\x15TS\x93'@|\x92\xb4\x0b\xf2>\xcc\xbf"
p39
tp40
bag2
(g3
(I0
tp41
g5
tp42
Rp43
(I1
(I3
tp44
g12
I00
S"\x0e)\x84\xb6KqI@=\x00\x1cr\xb4q'@|\x92\xb4\x0b\xf2>\xcc\xbf"
p45
tp46
bag2
(g3
(I0
tp47
g5
tp48
Rp49
(I1
(I3
tp50
g12
I00
S'\xb6\xc1\xd4\xbb\xc3\x96I@\x1ca"\x90\x15P\'@|\x92\xb4\x0b\xf2>\xcc\xbf'
p51
tp52
bag2
(g3
(I0
tp53
g5
tp54
Rp55
(I1
(I3
tp56
g12
I00
S"]Z%\xc1;\xbcI@\xfc\xc1(\xaev.'@|\x92\xb4\x0b\xf2>\xcc\xbf"
p57
tp58
bag2
(g3
(I0
tp59
g5
tp60
Rp61
(I1
(I3
tp62
g12
I00
S'\x05\xf3u\xc6\xb3\xe1I@\xdb"/\xcc\xd7\x0c\'@|\x92\xb4\x0b\xf2>\xcc\xbf'
p63
tp64
bag2
(g3
(I0
tp65
g5
tp66
Rp67
(I1
(I3
tp68
g12
I00
S"~\xfcY\xe8y\xeaI@\x8e\xd6\x0eZ\xf8\x04'@|\x92\xb4\x0b\xf2>\xcc\xbf"
p69
tp70
bag2
(g3
(I0
tp71
g5
tp72
Rp73
(I1
(I3
tp74
g12
I00
S"\x9f'\x08%p\xecI@)sK\xb25\x03'@\x85\x97\xd5\x8e7\x8b\xc5\xbf"
p75
tp76
bag2
(g3
(I0
tp77
g5
tp78
Rp79
(I1
(I3
tp80
g12
I00
S"\xf5u\xfa\x96k\xeeI@\x0b#\x89\xcc\xdc\x01'@ 9\xed#\xfa\xae\xbd\xbf"
p81
tp82
bag2
(g3
(I0
tp83
g5
tp84
Rp85
(I1
(I3
tp86
g12
I00
S"\x9c\xbb \xdaj\xf0I@\xa4\xb4\xc9\x9a\xee\x00'@5C/*\x85G\xb0\xbf"
p87
tp88
bag2
(g3
(I0
tp89
g5
tp90
Rp91
(I1
(I3
tp92
g12
I00
S"\x15\x1e\xbd\x87l\xf2I@\xa8\xe9/\xc4k\x00'@Aj\x8a\x83\x81\x00\x87\xbf"
p93
tp94
bag2
(g3
(I0
tp95
g5
tp96
Rp97
(I1
(I3
tp98
g12
I00
S"\xe7\xcc_7o\xf4I@\x850\x8a\xa4T\x00'@HQ\x99\x92\xc9\x0e\xa5?"
p99
tp100
bag2
(g3
(I0
tp101
g5
tp102
Rp103
(I1
(I3
tp104
g12
I00
S"\xba\xea\xe3\x7fq\xf6I@<9\x12L\xa9\x00'@\x91\x9e\n\xc3\xd9\xee\xb7?"
p105
tp106
bag2
(g3
(I0
tp107
g5
tp108
Rp109
(I1
(I3
tp110
g12
I00
S"\x84\xf5l\xf8q\xf8I@\xd9\x92a\x7fi\x01'@?Jd^'\xab\xc2?"
p111
tp112
bag2
(g3
(I0
tp113
g5
tp114
Rp115
(I1
(I3
tp116
g12
I00
S"\xec\xfbc9o\xfaI@sY\x9b\xb7\x94\x02'@4EC\xdb\xe1^\xc9?"
p117
tp118
bag2
(g3
(I0
tp119
g5
tp120
Rp121
(I1
(I3
tp122
g12
I00
S';\xees\xddg\xfcI@\x8f\xd7\xca"*\x04\'@\x15 \x11,N\t\xd0?'
p123
tp124
bag2
(g3
(I0
tp125
g5
tp126
Rp127
(I1
(I3
tp128
g12
I00
S"\xd0Y\x84\x82Z\xfeI@j\xd8v\xa4(\x06'@\x8f\x9d\x80j+c\xd3?"
p129
tp130
bag2
(g3
(I0
tp131
g5
tp132
Rp133
(I1
(I3
tp134
g12
I00
S"\x19\xc5\xd1i\x0b\x00J@\xd2m\x7f\xdaE\x08'@\xfcM\xe7J\x18W\xd6?"
p135
tp136
bag2
(g3
(I0
tp137
g5
tp138
Rp139
(I1
(I3
tp140
g12
I00
S"\xd1\xfa?\xf6\xff\xffI@\x8d\xee\xffg=\n'@\xf8M\xe7J\x18W\xd6?"
p141
tp142
bag2
(g3
(I0
tp143
g5
tp144
Rp145
(I1
(I3
tp146
g12
I00
S"\x17\xe3\x9d\xa3\xe3\x01J@\xee\xd3*\x95\xfd\x0c'@r\xcbV\x89\xf5\xb0\xd9?"
p147
tp148
bag2
(g3
(I0
tp149
g5
tp150
Rp151
(I1
(I3
tp152
g12
I00
S'\xc7\x9f\xa6p\xbd\x03J@wQ\x85\x0c"\x10\'@\xedH\xc6\xc7\xd2\n\xdd?'
p153
tp154
bag2
(g3
(I0
tp155
g5
tp156
Rp157
(I1
(I3
tp158
g12
I00
S".\x83\xe5\x10\x8c\x05J@\xb4p\x95\x99\xa8\x13'@5\xe3\x1a\x03X2\xe0?"
p159
tp160
bag2
(g3
(I0
tp161
g5
tp162
Rp163
(I1
(I3
tp164
g12
I00
S"\xee9\xbd?N\x07J@\x95K\x0e\xc3\x8e\x17'@\xf3\xa1R\xa2F\xdf\xe1?"
p165
tp166
bag2
(g3
(I0
tp167
g5
tp168
Rp169
(I1
(I3
tp170
g12
I00
S"i\x91K\xc1\x02\tJ@\xf9k\x8c\xcc\xd1\x1b'@\xae`\x8aA5\x8c\xe3?"
p171
tp172
bag2
(g3
(I0
tp173
g5
tp174
Rp175
(I1
(I3
tp176
g12
I00
S"\xc7\x1dGc\xa8\nJ@.>\x81\xb8n '@l\x1f\xc2\xe0#9\xe5?"
p177
tp178
bag2
(g3
(I0
tp179
g5
tp180
Rp181
(I1
(I3
tp182
g12
I00
S"+$\xd6\xfd=\x0cJ@\xa6=LJb%'@,\xde\xf9\x7f\x12\xe6\xe6?"
p183
tp184
bag2
(g3
(I0
tp185
g5
tp186
Rp187
(I1
(I3
tp188
g12
I00
S"12^t\xc2\rJ@\xedb\x80\x08\xa9*'@\xe8\x9c1\x1f\x01\x93\xe8?"
p189
tp190
bag2
(g3
(I0
tp191
g5
tp192
Rp193
(I1
(I3
tp194
g12
I00
S"\x1f\xd1K\xb64\x0fJ@\xe8:T??0'@\xa6[i\xbe\xef?\xea?"
p195
tp196
bag2
(g3
(I0
tp197
g5
tp198
Rp199
(I1
(I3
tp200
g12
I00
S"\xa3\xc8\xd1\xbf\x93\x10J@h\xf1:\x03!6'@c\x1a\xa1]\xde\xec\xeb?"
p201
tp202
bag2
(g3
(I0
tp203
g5
tp204
Rp205
(I1
(I3
tp206
g12
I00
S"\xe1j\x9f\x9a\xde\x11J@\x88|\xa43J<'@\x1f\xd9\xd8\xfc\xcc\x99\xed?"
p207
tp208
bag2
(g3
(I0
tp209
g5
tp210
Rp211
(I1
(I3
tp212
g12
I00
S"\xf1i\x8d^\x14\x13J@\x96\xfa\xe2}\xb6B'@\xdc\x97\x10\x9c\xbbF\xef?"
p213
tp214
bag2
(g3
(I0
tp215
g5
tp216
Rp217
(I1
(I3
tp218
g12
I00
S"\x8b\xbd@24\x14J@v:3`aI'@M+\xa4\x1d\xd5y\xf0?"
p219
tp220
bag2
(g3
(I0
tp221
g5
tp222
Rp223
(I1
(I3
tp224
g12
I00
S"\x85&\xc3K=\x15J@\x8dM\xe6,FP'@\xab\n@mLP\xf1?"
p225
tp226
bag2
(g3
(I0
tp227
g5
tp228
Rp229
(I1
(I3
tp230
g12
I00
S"(\xe5\x10\xf1.\x16J@(\xeb\xa9\r`W'@\t\xea\xdb\xbc\xc3&\xf2?"
p231
tp232
bag2
(g3
(I0
tp233
g5
tp234
Rp235
(I1
(I3
tp236
g12
I00
S"\xf0>\x9bx\x08\x17J@\xabW\xed\x06\xaa^'@j\xc9w\x0c;\xfd\xf2?"
p237
tp238
bag2
(g3
(I0
tp239
g5
tp240
Rp241
(I1
(I3
tp242
g12
I00
S"\x1bx\xbfI\xc9\x17J@\xedm`\xfb\x1ef'@\xc7\xa8\x13\\\xb2\xd3\xf3?"
p243
tp244
bag2
(g3
(I0
tp245
g5
tp246
Rp247
(I1
(I3
tp248
g12
I00
S"\x08\x86\x17X\xc9\x17J@[\x1c\x02\xa2\x1ff'@\x9c\x8d\x9f\xb7\xc4\xd3\xf3?"
p249
tp250
bag2
(g3
(I0
tp251
g5
tp252
Rp253
(I1
(I3
tp254
g12
I00
S"\x0fy\x85\xa5I$J@J\xee\x01)[\xf7'@\x9c\x8d\x9f\xb7\xc4\xd3\xf3?"
p255
tp256
bag2
(g3
(I0
tp257
g5
tp258
Rp259
(I1
(I3
tp260
g12
I00
S'\x15l\xf3\xf2\xc90J@9\xc0\x01\xb0\x96\x88(@\x9c\x8d\x9f\xb7\xc4\xd3\xf3?'
p261
tp262
bag2
(g3
(I0
tp263
g5
tp264
Rp265
(I1
(I3
tp266
g12
I00
S'X\x08y%\xaa8J@\x1d\th\xde\x15\xe4(@\x9c\x8d\x9f\xb7\xc4\xd3\xf3?'
p267
tp268
bag2
(g3
(I0
tp269
g5
tp270
Rp271
(I1
(I3
tp272
g12
I00
S'\x14\x1a\xbd\xb6Q9J@\x8a\xff\x92\x95\xb0\xeb(@\xf8l;\x07<\xaa\xf4?'
p273
tp274
bag2
(g3
(I0
tp275
g5
tp276
Rp277
(I1
(I3
tp278
g12
I00
S'\xa0\x80\xb0\x94\xdf9J@\xb8,\t\xb6k\xf3(@XL\xd7V\xb3\x80\xf5?'
p279
tp280
bag2
(g3
(I0
tp281
g5
tp282
Rp283
(I1
(I3
tp284
g12
I00
S'B\xb8\xc7[S:J@\xa5\xc4\x14\xd3A\xfb(@\xb7+s\xa6*W\xf6?'
p285
tp286
bag2
(g3
(I0
tp287
g5
tp288
Rp289
(I1
(I3
tp290
g12
I00
S']\xa6\xc5\xba\xac:J@\x0fa\x10m-\x03)@\x15\x0b\x0f\xf6\xa1-\xf7?'
p291
tp292
bag2
(g3
(I0
tp293
g5
tp294
Rp295
(I1
(I3
tp296
g12
I00
S'M\x9a\xf4r\xeb:J@^\xb8B\xf5(\x0b)@t\xea\xaaE\x19\x04\xf8?'
p297
tp298
bag2
(g3
(I0
tp299
g5
tp300
Rp301
(I1
(I3
tp302
g12
I00
S'\xf0MRX\x0f;J@\xfb\xe8\xc4\xd1.\x13)@\xd3\xc9F\x95\x90\xda\xf8?'
p303
tp304
bag2
(g3
(I0
tp305
g5
tp306
Rp307
(I1
(I3
tp308
g12
I00
S'\xf0\xc6\xaeQ\x18;J@\x91\x9cpa9\x1b)@2\xa9\xe2\xe4\x07\xb1\xf9?'
p309
tp310
bag2
(g3
(I0
tp311
g5
tp312
Rp313
(I1
(I3
tp314
g12
I00
S'-\x03\xbeX\x06;J@<A\xd3\xffB#)@\x91\x88~4\x7f\x87\xfa?'
p315
tp316
bag2
(g3
(I0
tp317
g5
tp318
Rp319
(I1
(I3
tp320
g12
I00
S'\xdac\x1cz\xd9:J@\x16\x93#\tF+)@\xf1g\x1a\x84\xf6]\xfb?'
p321
tp322
bag2
(g3
(I0
tp323
g5
tp324
Rp325
(I1
(I3
tp326
g12
I00
S'1\xd4E\xd5\x91:J@\x01\xaf6\xde<3)@OG\xb6\xd3m4\xfc?'
p327
tp328
bag2
(g3
(I0
tp329
g5
tp330
Rp331
(I1
(I3
tp332
g12
I00
S'\xfe\xb1\x7f\x9c/:J@\xbe\xe7q\xe8!;)@\xae&R#\xe5\n\xfd?'
p333
tp334
bag2
(g3
(I0
tp335
g5
tp336
Rp337
(I1
(I3
tp338
g12
I00
S'v\x87\xb5\x14\xb39J@\xd7\x98\xb6\x9d\xefB)@\x0e\x06\xeer\\\xe1\xfd?'
p339
tp340
bag2
(g3
(I0
tp341
g5
tp342
Rp343
(I1
(I3
tp344
g12
I00
S'!\xafH\x95\x1c9J@\xea6E\x84\xa0J)@l\xe5\x89\xc2\xd3\xb7\xfe?'
p345
tp346
bag2
(g3
(I0
tp347
g5
tp348
Rp349
(I1
(I3
tp350
g12
I00
S'\xc4\x03\xd3\x87l8J@)\xe3\x946/R)@\xcc\xc4%\x12K\x8e\xff?'
p351
tp352
bag2
(g3
(I0
tp353
g5
tp354
Rp355
(I1
(I3
tp356
g12
I00
S'P\xc7\xdcg\xa37J@\xe6\xcf\x1cg\x96Y)@\x15\xd2\xe00a2\x00@'
p357
tp358
bag2
(g3
(I0
tp359
g5
tp360
Rp361
(I1
(I3
tp362
g12
I00
S'\xd2\xf4\x85\xc2\xc16J@\xf7\xcd\x0c\xe4\xd0`)@\xc4\xc1\xae\xd8\x9c\x9d\x00@'
p363
tp364
bag2
(g3
(I0
tp365
g5
tp366
Rp367
(I1
(I3
tp368
g12
I00
S'A:#6\xc85J@\x8cf\xf2\x9a\xd9g)@t\xb1|\x80\xd8\x08\x01@'
p369
tp370
bag2
(g3
(I0
tp371
g5
tp372
Rp373
(I1
(I3
tp374
g12
I00
S"M\xf4'\x89\xb74J@Z\x1f\xd4\x06\xabn)@\xf1\x93\x84\xfa\nt\x01@"
p375
tp376
bag2
(g3
(I0
tp377
g5
tp378
Rp379
(I1
(I3
tp380
g12
I00
S'1\x11`)33J@!\x1f\x80\xcd\xa3p)@\xee\x93\x84\xfa\nt\x01@'
p381
tp382
bag2
(g3
(I0
tp383
g5
tp384
Rp385
(I1
(I3
tp386
g12
I00
S'\xa9\xdcb\xee\x0b2J@\xaaPnU:w)@\x9d\x83R\xa2F\xdf\x01@'
p387
tp388
bag2
(g3
(I0
tp389
g5
tp390
Rp391
(I1
(I3
tp392
g12
I00
S'\xd1\x1c\xf0\t\xcf0J@Jj\xaa\xbf\x90})@Ls J\x82J\x02@'
p393
tp394
bag2
(g3
(I0
tp395
g5
tp396
Rp397
(I1
(I3
tp398
g12
I00
S'\x84\x13cZ}/J@q\xa2\xca\x99\xa2\x83)@\xfbb\xee\xf1\xbd\xb5\x02@'
p399
tp400
bag2
(g3
(I0
tp401
g5
tp402
Rp403
(I1
(I3
tp404
g12
I00
S'\x8a\x1d\xae\xcc\x17.J@>\x1e\x81\xa1k\x89)@\xaaR\xbc\x99\xf9 \x03@'
p405
tp406
bag2
(g3
(I0
tp407
g5
tp408
Rp409
(I1
(I3
tp410
g12
I00
S'\xefo\xb4[\x9f,J@c\xfc\x98\xc7\xe7\x8e)@ZB\x8aA5\x8c\x03@'
p411
tp412
bag2
(g3
(I0
tp413
g5
tp414
Rp415
(I1
(I3
tp416
g12
I00
S'+\r\x9a\x0f\x15+J@l\x85\xcf2\x13\x94)@\t2X\xe9p\xf7\x03@'
p417
tp418
bag2
(g3
(I0
tp419
g5
tp420
Rp421
(I1
(I3
tp422
g12
I00
S'\xacm\n\xfdy)J@\xc3\x81\x87B\xea\x98)@\xb8!&\x91\xacb\x04@'
p423
tp424
bag2
(g3
(I0
tp425
g5
tp426
Rp427
(I1
(I3
tp428
g12
I00
S"\xb7]vD\xcf'J@C\xd0T\x91i\x9d)@h\x11\xf48\xe8\xcd\x04@"
p429
tp430
bag2
(g3
(I0
tp431
g5
tp432
Rp433
(I1
(I3
tp434
g12
I00
S'\xf5\x98I\x11\x16&J@At^\xf7\x8d\xa1)@\x17\x01\xc2\xe0#9\x05@'
p435
tp436
bag2
(g3
(I0
tp437
g5
tp438
Rp439
(I1
(I3
tp440
g12
I00
S'\x92\xb1\x18\x99O$J@\xe5n\x95\x8cT\xa5)@\xc6\xf0\x8f\x88_\xa4\x05@'
p441
tp442
bag2
(g3
(I0
tp443
g5
tp444
Rp445
(I1
(I3
tp446
g12
I00
S's\xd6\xc7\x1a}"J@\x1e\xd6\xbe\xaa\xba\xa8)@v\xe0]0\x9b\x0f\x06@'
p447
tp448
bag2
(g3
(I0
tp449
g5
tp450
Rp451
(I1
(I3
tp452
g12
I00
S'\xe8*\xb4\xb6\xb8!J@v\xe5(\x0e\xf8\xa9)@C\x0cw\xf5\xbb;\x06@'
p453
tp454
bag2
(g3
(I0
tp455
g5
tp456
Rp457
(I1
(I3
tp458
g12
I00
S'\x11/z\xe6\xd0\xfdI@\xd4\x8a\x87Cm\xe0)@C\x0cw\xf5\xbb;\x06@'
p459
tp460
bag2
(g3
(I0
tp461
g5
tp462
Rp463
(I1
(I3
tp464
g12
I00
S';3@\x16\xe9\xd9I@20\xe6x\xe2\x16*@C\x0cw\xf5\xbb;\x06@'
p465
tp466
bag2
(g3
(I0
tp467
g5
tp468
Rp469
(I1
(I3
tp470
g12
I00
S'e7\x06F\x01\xb6I@\x90\xd5D\xaeWM*@C\x0cw\xf5\xbb;\x06@'
p471
tp472
bag2
(g3
(I0
tp473
g5
tp474
Rp475
(I1
(I3
tp476
g12
I00
S'\x8f;\xccu\x19\x92I@\xeez\xa3\xe3\xcc\x83*@C\x0cw\xf5\xbb;\x06@'
p477
tp478
bag2
(g3
(I0
tp479
g5
tp480
Rp481
(I1
(I3
tp482
g12
I00
S'\xb9?\x92\xa51nI@M \x02\x19B\xba*@C\x0cw\xf5\xbb;\x06@'
p483
tp484
bag2
(g3
(I0
tp485
g5
tp486
Rp487
(I1
(I3
tp488
g12
I00
S'\xe3CX\xd5IJI@\xaa\xc5`N\xb7\xf0*@C\x0cw\xf5\xbb;\x06@'
p489
tp490
bag2
(g3
(I0
tp491
g5
tp492
Rp493
(I1
(I3
tp494
g12
I00
S"\rH\x1e\x05b&I@\x08k\xbf\x83,'+@C\x0cw\xf5\xbb;\x06@"
p495
tp496
bag2
(g3
(I0
tp497
g5
tp498
Rp499
(I1
(I3
tp500
g12
I00
S'6L\xe44z\x02I@f\x10\x1e\xb9\xa1]+@C\x0cw\xf5\xbb;\x06@'
p501
tp502
bag2
(g3
(I0
tp503
g5
tp504
Rp505
(I1
(I3
tp506
g12
I00
S'`P\xaad\x92\xdeH@\xc4\xb5|\xee\x16\x94+@C\x0cw\xf5\xbb;\x06@'
p507
tp508
bag2
(g3
(I0
tp509
g5
tp510
Rp511
(I1
(I3
tp512
g12
I00
S'\x8aTp\x94\xaa\xbaH@"[\xdb#\x8c\xca+@C\x0cw\xf5\xbb;\x06@'
p513
tp514
bag2
(g3
(I0
tp515
g5
tp516
Rp517
(I1
(I3
tp518
g12
I00
S'\xb4X6\xc4\xc2\x96H@\x80\x00:Y\x01\x01,@C\x0cw\xf5\xbb;\x06@'
p519
tp520
bag2
(g3
(I0
tp521
g5
tp522
Rp523
(I1
(I3
tp524
g12
I00
S'\xde\\\xfc\xf3\xdarH@\xde\xa5\x98\x8ev7,@C\x0cw\xf5\xbb;\x06@'
p525
tp526
bag2
(g3
(I0
tp527
g5
tp528
Rp529
(I1
(I3
tp530
g12
I00
S'\x08a\xc2#\xf3NH@<K\xf7\xc3\xebm,@C\x0cw\xf5\xbb;\x06@'
p531
tp532
bag2
(g3
(I0
tp533
g5
tp534
Rp535
(I1
(I3
tp536
g12
I00
S'2e\x88S\x0b+H@\x9a\xf0U\xf9`\xa4,@C\x0cw\xf5\xbb;\x06@'
p537
tp538
bag2
(g3
(I0
tp539
g5
tp540
Rp541
(I1
(I3
tp542
g12
I00
S'\\iN\x83#\x07H@\xf8\x95\xb4.\xd6\xda,@C\x0cw\xf5\xbb;\x06@'
p543
tp544
bag2
(g3
(I0
tp545
g5
tp546
Rp547
(I1
(I3
tp548
g12
I00
S'\x85m\x14\xb3;\xe3G@V;\x13dK\x11-@C\x0cw\xf5\xbb;\x06@'
p549
tp550
bag2
(g3
(I0
tp551
g5
tp552
Rp553
(I1
(I3
tp554
g12
I00
S'\xafq\xda\xe2S\xbfG@\xb4\xe0q\x99\xc0G-@C\x0cw\xf5\xbb;\x06@'
p555
tp556
bag2
(g3
(I0
tp557
g5
tp558
Rp559
(I1
(I3
tp560
g12
I00
S'\xd9u\xa0\x12l\x9bG@\x12\x86\xd0\xce5~-@C\x0cw\xf5\xbb;\x06@'
p561
tp562
bag2
(g3
(I0
tp563
g5
tp564
Rp565
(I1
(I3
tp566
g12
I00
S'\x03zfB\x84wG@p+/\x04\xab\xb4-@C\x0cw\xf5\xbb;\x06@'
p567
tp568
bag2
(g3
(I0
tp569
g5
tp570
Rp571
(I1
(I3
tp572
g12
I00
S'-~,r\x9cSG@\xce\xd0\x8d9 \xeb-@C\x0cw\xf5\xbb;\x06@'
p573
tp574
bag2
(g3
(I0
tp575
g5
tp576
Rp577
(I1
(I3
tp578
g12
I00
S'V\x82\xf2\xa1\xb4/G@,v\xecn\x95!.@C\x0cw\xf5\xbb;\x06@'
p579
tp580
bag2
(g3
(I0
tp581
g5
tp582
Rp583
(I1
(I3
tp584
g12
I00
S'\x80\x86\xb8\xd1\xcc\x0bG@\x8a\x1bK\xa4\nX.@C\x0cw\xf5\xbb;\x06@'
p585
tp586
bag2
(g3
(I0
tp587
g5
tp588
Rp589
(I1
(I3
tp590
g12
I00
S'\xaa\x8a~\x01\xe5\xe7F@\xe8\xc0\xa9\xd9\x7f\x8e.@C\x0cw\xf5\xbb;\x06@'
p591
tp592
bag2
(g3
(I0
tp593
g5
tp594
Rp595
(I1
(I3
tp596
g12
I00
S'\xd4\x8eD1\xfd\xc3F@Ff\x08\x0f\xf5\xc4.@C\x0cw\xf5\xbb;\x06@'
p597
tp598
bag2
(g3
(I0
tp599
g5
tp600
Rp601
(I1
(I3
tp602
g12
I00
S'\xfe\x92\na\x15\xa0F@\xa4\x0bgDj\xfb.@C\x0cw\xf5\xbb;\x06@'
p603
tp604
bag2
(g3
(I0
tp605
g5
tp606
Rp607
(I1
(I3
tp608
g12
I00
S'(\x97\xd0\x90-|F@\x02\xb1\xc5y\xdf1/@C\x0cw\xf5\xbb;\x06@'
p609
tp610
bag2
(g3
(I0
tp611
g5
tp612
Rp613
(I1
(I3
tp614
g12
I00
S'R\x9b\x96\xc0EXF@`V$\xafTh/@C\x0cw\xf5\xbb;\x06@'
p615
tp616
bag2
(g3
(I0
tp617
g5
tp618
Rp619
(I1
(I3
tp620
g12
I00
S'|\x9f\\\xf0]4F@\xbe\xfb\x82\xe4\xc9\x9e/@C\x0cw\xf5\xbb;\x06@'
p621
tp622
bag2
(g3
(I0
tp623
g5
tp624
Rp625
(I1
(I3
tp626
g12
I00
S'\xa6\xa3" v\x10F@\x1c\xa1\xe1\x19?\xd5/@C\x0cw\xf5\xbb;\x06@'
p627
tp628
bag2
(g3
(I0
tp629
g5
tp630
Rp631
(I1
(I3
tp632
g12
I00
S"\xcf\xa7\xe8O\x8e\xecE@=#\xa0'\xda\x050@C\x0cw\xf5\xbb;\x06@"
p633
tp634
bag2
(g3
(I0
tp635
g5
tp636
Rp637
(I1
(I3
tp638
g12
I00
S'\xf9\xab\xae\x7f\xa6\xc8E@\xecuO\xc2\x14!0@C\x0cw\xf5\xbb;\x06@'
p639
tp640
bag2
(g3
(I0
tp641
g5
tp642
Rp643
(I1
(I3
tp644
g12
I00
S'#\xb0t\xaf\xbe\xa4E@\x9b\xc8\xfe\\O<0@C\x0cw\xf5\xbb;\x06@'
p645
tp646
bag2
(g3
(I0
tp647
g5
tp648
Rp649
(I1
(I3
tp650
g12
I00
S'M\xb4:\xdf\xd6\x80E@J\x1b\xae\xf7\x89W0@C\x0cw\xf5\xbb;\x06@'
p651
tp652
bag2
(g3
(I0
tp653
g5
tp654
Rp655
(I1
(I3
tp656
g12
I00
S'w\xb8\x00\x0f\xef\\E@\xf8m]\x92\xc4r0@C\x0cw\xf5\xbb;\x06@'
p657
tp658
bag2
(g3
(I0
tp659
g5
tp660
Rp661
(I1
(I3
tp662
g12
I00
S'\xa1\xbc\xc6>\x079E@\xa7\xc0\x0c-\xff\x8d0@C\x0cw\xf5\xbb;\x06@'
p663
tp664
bag2
(g3
(I0
tp665
g5
tp666
Rp667
(I1
(I3
tp668
g12
I00
S'\xcb\xc0\x8cn\x1f\x15E@V\x13\xbc\xc79\xa90@C\x0cw\xf5\xbb;\x06@'
p669
tp670
bag2
(g3
(I0
tp671
g5
tp672
Rp673
(I1
(I3
tp674
g12
I00
S'\xf5\xc4R\x9e7\xf1D@\x05fkbt\xc40@C\x0cw\xf5\xbb;\x06@'
p675
tp676
bag2
(g3
(I0
tp677
g5
tp678
Rp679
(I1
(I3
tp680
g12
I00
S'\x1e\xc9\x18\xceO\xcdD@\xb4\xb8\x1a\xfd\xae\xdf0@C\x0cw\xf5\xbb;\x06@'
p681
tp682
bag2
(g3
(I0
tp683
g5
tp684
Rp685
(I1
(I3
tp686
g12
I00
S'H\xcd\xde\xfdg\xa9D@b\x0b\xca\x97\xe9\xfa0@C\x0cw\xf5\xbb;\x06@'
p687
tp688
bag2
(g3
(I0
tp689
g5
tp690
Rp691
(I1
(I3
tp692
g12
I00
S'r\xd1\xa4-\x80\x85D@\x11^y2$\x161@C\x0cw\xf5\xbb;\x06@'
p693
tp694
bag2
(g3
(I0
tp695
g5
tp696
Rp697
(I1
(I3
tp698
g12
I00
S'\x9f\x05\xbf\x91\xf1pD@\x87\xcf\xa8\x17\xbb%1@C\x0cw\xf5\xbb;\x06@'
p699
tp700
bag2
(g3
(I0
tp701
g5
tp702
Rp703
(I1
(I3
tp704
g12
I00
S"\x08;\x7fI\x10oD@\x90\x11\x89\x12('1@\xf2\xfbD\x9d\xf7\xa6\x06@"
p705
tp706
bag2
(g3
(I0
tp707
g5
tp708
Rp709
(I1
(I3
tp710
g12
I00
S'\x9f\xb6$\xb8\xe4oD@.\xcc$\xf2\x9f&1@\x96\xd1v\x91~x\x06@'
p711
tp712
bag2
(g3
(I0
tp713
g5
tp714
Rp715
(I1
(I3
tp716
g12
I00
S'\x06o\xb2\x87\x82oD@\xb0w(N\x9a%1@\x96\xd1v\x91~x\x06@'
p717
tp718
bag2
(g3
(I0
tp719
g5
tp720
Rp721
(I1
(I3
tp722
g12
I00
S'\x7f\xd7\xda\x0b\x9cmD@\x04\xf8I\x92\xea&1@E\xc1D9\xba\xe3\x06@'
p723
tp724
bag2
(g3
(I0
tp725
g5
tp726
Rp727
(I1
(I3
tp728
g12
I00
S'\xae\xe5\nn\xadkD@>\xfc\x9et\x07(1@\xf5\xb0\x12\xe1\xf5N\x07@'
p729
tp730
bag2
(g3
(I0
tp731
g5
tp732
Rp733
(I1
(I3
tp734
g12
I00
S'\xae]R\t\xb8iD@z\xe4A-\xf0(1@\xa4\xa0\xe0\x881\xba\x07@'
p735
tp736
bag2
(g3
(I0
tp737
g5
tp738
Rp739
(I1
(I3
tp740
g12
I00
S'\x91\\\x82=\xbdgD@!\x10\xe7\x18\xa4)1@S\x90\xae0m%\x08@'
p741
tp742
bag2
(g3
(I0
tp743
g5
tp744
Rp745
(I1
(I3
tp746
g12
I00
S'\xa4{6n\xbeeD@\x9brO\xb9"*1@\x03\x80|\xd8\xa8\x90\x08@'
p747
tp748
bag2
(g3
(I0
tp749
g5
tp750
Rp751
(I1
(I3
tp752
g12
I00
S'\xc1J\xdb\x01\xbdcD@\xe2(\xa1\xb5k*1@\xb2oJ\x80\xe4\xfb\x08@'
p753
tp754
bag2
(g3
(I0
tp755
g5
tp756
Rp757
(I1
(I3
tp758
g12
I00
S'\xb6\xd0\xb2`\xbaaD@\xcb\xd1\xa5\xda~*1@\xce\xfao\x80\xd6\xdc\x08\xc0'
p759
tp760
bag2
(g3
(I0
tp761
g5
tp762
Rp763
(I1
(I3
tp764
g12
I00
S'I\xc2\xd7\xf3\xb7_D@J}\xee\x1a\\*1@\x1f\x0b\xa2\xd8\x9aq\x08\xc0'
p765
tp766
bag2
(g3
(I0
tp767
g5
tp768
Rp769
(I1
(I3
tp770
g12
I00
S'/!@$\xb7]D@~\x19\xdd\x8e\x03*1@p\x1b\xd40_\x06\x08\xc0'
p771
tp772
bag2
(g3
(I0
tp773
g5
tp774
Rp775
(I1
(I3
tp776
g12
I00
S'\xc6\xf4\xbfY\xb9[D@\xd7V\x93tu)1@\xc0+\x06\x89#\x9b\x07\xc0'
p777
tp778
bag2
(g3
(I0
tp779
g5
tp780
Rp781
(I1
(I3
tp782
g12
I00
S'C\xce\x0c\xfa\xbfYD@o\x0f\xc7/\xb2(1@\x11<8\xe1\xe7/\x07\xc0'
p783
tp784
bag2
(g3
(I0
tp785
g5
tp786
Rp787
(I1
(I3
tp788
g12
I00
S"\x87\xc9\xc2g\xccWD@\x16P|I\xba'1@bLj9\xac\xc4\x06\xc0"
p789
tp790
bag2
(g3
(I0
tp791
g5
tp792
Rp793
(I1
(I3
tp794
g12
I00
S"<_U\xcf\xf5VD@L\x96}\x9b7'1@\x12cx^\xf0\x95\x06\xc0"
p795
tp796
bag2
(g3
(I0
tp797
g5
tp798
Rp799
(I1
(I3
tp800
g12
I00
S"\xc6\xf9\x18s}2D@'\x88\xb16-\x0f1@\x12cx^\xf0\x95\x06\xc0"
p801
tp802
bag2
(g3
(I0
tp803
g5
tp804
Rp805
(I1
(I3
tp806
g12
I00
S'P\x94\xdc\x16\x05\x0eD@\x03z\xe5\xd1"\xf70@\x12cx^\xf0\x95\x06\xc0'
p807
tp808
bag2
(g3
(I0
tp809
g5
tp810
Rp811
(I1
(I3
tp812
g12
I00
S'\xda.\xa0\xba\x8c\xe9C@\xdfk\x19m\x18\xdf0@\x12cx^\xf0\x95\x06\xc0'
p813
tp814
bag2
(g3
(I0
tp815
g5
tp816
Rp817
(I1
(I3
tp818
g12
I00
S'd\xc9c^\x14\xc5C@\xba]M\x08\x0e\xc70@\x12cx^\xf0\x95\x06\xc0'
p819
tp820
bag2
(g3
(I0
tp821
g5
tp822
Rp823
(I1
(I3
tp824
g12
I00
S'\x1a\xaa\x8b\xc1d\xbaC@d\xfd\x8f\xc1\x02\xc00@\x12cx^\xf0\x95\x06\xc0'
p825
tp826
bag2
(g3
(I0
tp827
g5
tp828
Rp829
(I1
(I3
tp830
g12
I00
S'\xba^\xc5\xe7{\xb8C@\xf3\xe8F\x83\xc0\xbe0@cs\xaa\xb6\xb4*\x06\xc0'
p831
tp832
bag2
(g3
(I0
tp833
g5
tp834
Rp835
(I1
(I3
tp836
g12
I00
S'\xeb\x856(\x9c\xb6C@\xa6\xac\xcc\x8aK\xbd0@\xb4\x83\xdc\x0ey\xbf\x05\xc0'
p837
tp838
bag2
(g3
(I0
tp839
g5
tp840
Rp841
(I1
(I3
tp842
g12
I00
S'\xc6\x1f\x80\xd3\xc6\xb4C@q\xda\xd5\xdd\xa4\xbb0@\x04\x94\x0eg=T\x05\xc0'
p843
tp844
bag2
(g3
(I0
tp845
g5
tp846
Rp847
(I1
(I3
tp848
g12
I00
S'k\xb5A\x17"\xb3C@\xac\x9d\xd6\xa1\xf3\xb90@\x1b\xc38\xc6\xa6\xf1\x04\xc0'
p849
tp850
bag2
(g3
(I0
tp851
g5
tp852
Rp853
(I1
(I3
tp854
g12
I00
S'A\xe9\xcf+3\xb3C@:\x17@\xe5Q\xb80@\x1a\xc38\xc6\xa6\xf1\x04\xc0'
p855
tp856
bag2
(g3
(I0
tp857
g5
tp858
Rp859
(I1
(I3
tp860
g12
I00
S'hXliu\xb1C@O\xd4M-O\xb60@\xc9\xb2\x06n\xe2\\\x05\xc0'
p861
tp862
bag2
(g3
(I0
tp863
g5
tp864
Rp865
(I1
(I3
tp866
g12
I00
S'\xde\xc7R\xcb\xaa\xafC@F-\x83\xd2{\xb40@y\xa2\xd4\x15\x1e\xc8\x05\xc0'
p867
tp868
bag2
(g3
(I0
tp869
g5
tp870
Rp871
(I1
(I3
tp872
g12
I00
S'Hl1<\x95\xafC@\x8aO\xf6\x9fh\xb40@RD\xfa\xb7\x08\xcd\x05\xc0'
p873
tp874
bag2
(g3
(I0
tp875
g5
tp876
Rp877
(I1
(I3
tp878
g12
I00
S'\x19\xef\x1f%w\x8cC@\xf8p\x8e\xffV\x950@RD\xfa\xb7\x08\xcd\x05\xc0'
p879
tp880
bag2
(g3
(I0
tp881
g5
tp882
Rp883
(I1
(I3
tp884
g12
I00
S'\xe9q\x0e\x0eYiC@e\x92&_Ev0@RD\xfa\xb7\x08\xcd\x05\xc0'
p885
tp886
bag2
(g3
(I0
tp887
g5
tp888
Rp889
(I1
(I3
tp890
g12
I00
S'\xb9\xf4\xfc\xf6:FC@\xd3\xb3\xbe\xbe3W0@RD\xfa\xb7\x08\xcd\x05\xc0'
p891
tp892
bag2
(g3
(I0
tp893
g5
tp894
Rp895
(I1
(I3
tp896
g12
I00
S'\x8aw\xeb\xdf\x1c#C@A\xd5V\x1e"80@RD\xfa\xb7\x08\xcd\x05\xc0'
p897
tp898
bag2
(g3
(I0
tp899
g5
tp900
Rp901
(I1
(I3
tp902
g12
I00
S'Z\xfa\xd9\xc8\xfe\xffB@\xae\xf6\xee}\x10\x190@RD\xfa\xb7\x08\xcd\x05\xc0'
p903
tp904
bag2
(g3
(I0
tp905
g5
tp906
Rp907
(I1
(I3
tp908
g12
I00
S'*}\xc8\xb1\xe0\xdcB@80\x0e\xbb\xfd\xf3/@RD\xfa\xb7\x08\xcd\x05\xc0'
p909
tp910
bag2
(g3
(I0
tp911
g5
tp912
Rp913
(I1
(I3
tp914
g12
I00
S'M\x19 \x9c\x83\xd0B@\xfe\x95(]\x1d\xde/@RD\xfa\xb7\x08\xcd\x05\xc0'
p915
tp916
bag2
(g3
(I0
tp917
g5
tp918
Rp919
(I1
(I3
tp920
g12
I00
S' \t\xcd\xe3\xac\xceB@\n^Jv\xdc\xda/@\xa2T,\x10\xcda\x05\xc0'
p921
tp922
bag2
(g3
(I0
tp923
g5
tp924
Rp925
(I1
(I3
tp926
g12
I00
S'\x95\xdam\xb6\xe1\xccB@\xba\xff\xcc(:\xd7/@\xf3d^h\x91\xf6\x04\xc0'
p927
tp928
bag2
(g3
(I0
tp929
g5
tp930
Rp931
(I1
(I3
tp932
g12
I00
S'\xed\xd9&?\xcd\xccB@\xad?2(\x0b\xd7/@\x1a\xc38\xc6\xa6\xf1\x04\xc0'
p933
tp934
bag2
(g3
(I0
tp935
g5
tp936
Rp937
(I1
(I3
tp938
g12
I00
S'\x04\x0e\xc0\xc5\xcc\xccB@^W\x801\n\xd7/@\x1a\xc38\xc6\xa6\xf1\x04\xc0'
p939
tp940
bag2
(g3
(I0
tp941
g5
tp942
Rp943
(I1
(I3
tp944
g12
I00
S'+}\\\x03\x0f\xcbB@\x89\xd1\x9b\xc1\x04\xd3/@\xc9\xb2\x06n\xe2\\\x05\xc0'
p945
tp946
bag2
(g3
(I0
tp947
g5
tp948
Rp949
(I1
(I3
tp950
g12
I00
S'\xa1\xecBeD\xc9B@u\x83\x06\x0c^\xcf/@y\xa2\xd4\x15\x1e\xc8\x05\xc0'
p951
tp952
bag2
(g3
(I0
tp953
g5
tp954
Rp955
(I1
(I3
tp956
g12
I00
S'\x95\xa9@-n\xc7B@\xae\xe7\x9d\xa0\x18\xcc/@(\x92\xa2\xbdY3\x06\xc0'
p957
tp958
bag2
(g3
(I0
tp959
g5
tp960
Rp961
(I1
(I3
tp962
g12
I00
S'\xd5\xecF\xa5\x8d\xc5B@\x0cZ\xfb\xca6\xc9/@\xd7\x81pe\x95\x9e\x06\xc0'
p963
tp964
bag2
(g3
(I0
tp965
g5
tp966
Rp967
(I1
(I3
tp968
g12
I00
S'eW\x83\x1e\xa4\xc3B@\x83\xc9\xd7\x90\xba\xc6/@\x87q>\r\xd1\t\x07\xc0'
p969
tp970
bag2
(g3
(I0
tp971
g5
tp972
Rp973
(I1
(I3
tp974
g12
I00
S'66St\xfd\xc1B@\xa0[\x16\x8e\xf5\xc4/@\x8d\x97\xcc_\xfad\x07\xc0'
p975
tp976
bag2
(g3
(I0
tp977
g5
tp978
Rp979
(I1
(I3
tp980
g12
I00
S'\xea4\x0c5~\x9cB@_\xc5\xc1\x8e\xd8\xa3/@\x8d\x97\xcc_\xfad\x07\xc0'
p981
tp982
bag2
(g3
(I0
tp983
g5
tp984
Rp985
(I1
(I3
tp986
g12
I00
S'\x9e3\xc5\xf5\xfevB@\x1e/m\x8f\xbb\x82/@\x8d\x97\xcc_\xfad\x07\xc0'
p987
tp988
bag2
(g3
(I0
tp989
g5
tp990
Rp991
(I1
(I3
tp992
g12
I00
S'R2~\xb6\x7fQB@\xde\x98\x18\x90\x9ea/@\x8d\x97\xcc_\xfad\x07\xc0'
p993
tp994
bag2
(g3
(I0
tp995
g5
tp996
Rp997
(I1
(I3
tp998
g12
I00
S'\x0617w\x00,B@\x9d\x02\xc4\x90\x81@/@\x8d\x97\xcc_\xfad\x07\xc0'
p999
tp1000
bag2
(g3
(I0
tp1001
g5
tp1002
Rp1003
(I1
(I3
tp1004
g12
I00
S'\xba/\xf07\x81\x06B@]lo\x91d\x1f/@\x8d\x97\xcc_\xfad\x07\xc0'
p1005
tp1006
bag2
(g3
(I0
tp1007
g5
tp1008
Rp1009
(I1
(I3
tp1010
g12
I00
S'n.\xa9\xf8\x01\xe1A@\x1c\xd6\x1a\x92G\xfe.@\x8d\x97\xcc_\xfad\x07\xc0'
p1011
tp1012
bag2
(g3
(I0
tp1013
g5
tp1014
Rp1015
(I1
(I3
tp1016
g12
I00
S'!-b\xb9\x82\xbbA@\xdc?\xc6\x92*\xdd.@\x8d\x97\xcc_\xfad\x07\xc0'
p1017
tp1018
bag2
(g3
(I0
tp1019
g5
tp1020
Rp1021
(I1
(I3
tp1022
g12
I00
S'\xd5+\x1bz\x03\x96A@\x9b\xa9q\x93\r\xbc.@\x8d\x97\xcc_\xfad\x07\xc0'
p1023
tp1024
bag2
(g3
(I0
tp1025
g5
tp1026
Rp1027
(I1
(I3
tp1028
g12
I00
S'\x89*\xd4:\x84pA@Z\x13\x1d\x94\xf0\x9a.@\x8d\x97\xcc_\xfad\x07\xc0'
p1029
tp1030
bag2
(g3
(I0
tp1031
g5
tp1032
Rp1033
(I1
(I3
tp1034
g12
I00
S'=)\x8d\xfb\x04KA@\x1a}\xc8\x94\xd3y.@\x8d\x97\xcc_\xfad\x07\xc0'
p1035
tp1036
bag2
(g3
(I0
tp1037
g5
tp1038
Rp1039
(I1
(I3
tp1040
g12
I00
S"\xf1'F\xbc\x85%A@\xd9\xe6s\x95\xb6X.@\x8d\x97\xcc_\xfad\x07\xc0"
p1041
tp1042
bag2
(g3
(I0
tp1043
g5
tp1044
Rp1045
(I1
(I3
tp1046
g12
I00
S'\xa5&\xff|\x06\x00A@\x98P\x1f\x96\x997.@\x8d\x97\xcc_\xfad\x07\xc0'
p1047
tp1048
bag2
(g3
(I0
tp1049
g5
tp1050
Rp1051
(I1
(I3
tp1052
g12
I00
S'Y%\xb8=\x87\xda@@X\xba\xca\x96|\x16.@\x8d\x97\xcc_\xfad\x07\xc0'
p1053
tp1054
bag2
(g3
(I0
tp1055
g5
tp1056
Rp1057
(I1
(I3
tp1058
g12
I00
S'\r$q\xfe\x07\xb5@@\x17$v\x97_\xf5-@\x8d\x97\xcc_\xfad\x07\xc0'
p1059
tp1060
bag2
(g3
(I0
tp1061
g5
tp1062
Rp1063
(I1
(I3
tp1064
g12
I00
S'\xb57\xaf(\xa2\xa4@@\xbc\xd8\xbd\x86\xe4\xe6-@\x8d\x97\xcc_\xfad\x07\xc0'
p1065
tp1066
bag2
(g3
(I0
tp1067
g5
tp1068
Rp1069
(I1
(I3
tp1070
g12
I00
S'\xce\xe9#\x8b\xab\xa2@@\x99`\xfa\xab(\xe5-@\xde\xa7\xfe\xb7\xbe\xf9\x06\xc0'
p1071
tp1072
bag2
(g3
(I0
tp1073
g5
tp1074
Rp1075
(I1
(I3
tp1076
g12
I00
S'\xb3\xe5\x9fl\xbb\xa0@@\x99\xf0\xc24\x04\xe3-@.\xb80\x10\x83\x8e\x06\xc0'
p1077
tp1078
bag2
(g3
(I0
tp1079
g5
tp1080
Rp1081
(I1
(I3
tp1082
g12
I00
S'\x9e\xdf@)\xd3\x9e@@\xc77\xf0\xa1x\xe0-@\x7f\xc8bhG#\x06\xc0'
p1083
tp1084
bag2
(g3
(I0
tp1085
g5
tp1086
Rp1087
(I1
(I3
tp1088
g12
I00
S'\xac^\xa1\x17\xf4\x9c@@\xfa\x1d\xb4\xbc\x87\xdd-@\xd0\xd8\x94\xc0\x0b\xb8\x05\xc0'
p1089
tp1090
bag2
(g3
(I0
tp1091
g5
tp1092
Rp1093
(I1
(I3
tp1094
g12
I00
S'\x16W\xe8\x87\x1f\x9b@@\x16\xf6X\x953\xda-@ \xe9\xc6\x18\xd0L\x05\xc0'
p1095
tp1096
bag2
(g3
(I0
tp1097
g5
tp1098
Rp1099
(I1
(I3
tp1100
g12
I00
S'f\xe4E8\x9b\x99@@\x88u\x1c\xc0\x0c\xd7-@\x1a\xc38\xc6\xa6\xf1\x04\xc0'
p1101
tp1102
bag2
(g3
(I0
tp1103
g5
tp1104
Rp1105
(I1
(I3
tp1106
g12
I00
S'\xcf\xf3_\x93\x99\x99@@\x96\xe5?2\n\xd7-@\x1a\xc38\xc6\xa6\xf1\x04\xc0'
p1107
tp1108
bag2
(g3
(I0
tp1109
g5
tp1110
Rp1111
(I1
(I3
tp1112
g12
I00
S'\xf6b\xfc\xd0\xdb\x97@@\xc1_[\xc2\x04\xd3-@k\xd3j\x1ek\x86\x04\xc0'
p1113
tp1114
bag2
(g3
(I0
tp1115
g5
tp1116
Rp1117
(I1
(I3
tp1118
g12
I00
S'1f\x16#,\x96@@\x97\x06}j\xa3\xce-@\xbb\xe3\x9cv/\x1b\x04\xc0'
p1119
tp1120
bag2
(g3
(I0
tp1121
g5
tp1122
Rp1123
(I1
(I3
tp1124
g12
I00
S'\xa2`\x94\xb8\x8b\x94@@\xe8Ow=\xe9\xc9-@\x0c\xf4\xce\xce\xf3\xaf\x03\xc0'
p1125
tp1126
bag2
(g3
(I0
tp1127
g5
tp1128
Rp1129
(I1
(I3
tp1130
g12
I00
S"U\xfa\xa6\xb5\xfb\x92@@V\xaaq\x8c\xd9\xc4-@]\x04\x01'\xb8D\x03\xc0"
p1131
tp1132
bag2
(g3
(I0
tp1133
g5
tp1134
Rp1135
(I1
(I3
tp1136
g12
I00
S'I\x1a\xfc2}\x91@@ \xa8\x94\xe4w\xbf-@\xad\x143\x7f|\xd9\x02\xc0'
p1137
tp1138
bag2
(g3
(I0
tp1139
g5
tp1140
Rp1141
(I1
(I3
tp1142
g12
I00
S'\t\x97\xfc\x90\xd8\x90@@\x1a\x9b\x96\\\xe5\xbc-@<+\xf4\x1c\xfb\xa8\x02\xc0'
p1143
tp1144
bag2
(g3
(I0
tp1145
g5
tp1146
Rp1147
(I1
(I3
tp1148
g12
I00
S'\xfd\xbf\xa3\xfdWv@@b\x93\xbc\x1e\xbeM-@<+\xf4\x1c\xfb\xa8\x02\xc0'
p1149
tp1150
bag2
(g3
(I0
tp1151
g5
tp1152
Rp1153
(I1
(I3
tp1154
g12
I00
S'\xf1\xe8Jj\xd7[@@\xaa\x8b\xe2\xe0\x96\xde,@<+\xf4\x1c\xfb\xa8\x02\xc0'
p1155
tp1156
bag2
(g3
(I0
tp1157
g5
tp1158
Rp1159
(I1
(I3
tp1160
g12
I00
S'\xe5\x11\xf2\xd6VA@@\xf2\x83\x08\xa3oo,@<+\xf4\x1c\xfb\xa8\x02\xc0'
p1161
tp1162
bag2
(g3
(I0
tp1163
g5
tp1164
Rp1165
(I1
(I3
tp1166
g12
I00
S'\xd9:\x99C\xd6&@@:|.eH\x00,@<+\xf4\x1c\xfb\xa8\x02\xc0'
p1167
tp1168
bag2
(g3
(I0
tp1169
g5
tp1170
Rp1171
(I1
(I3
tp1172
g12
I00
S"\xcdc@\xb0U\x0c@@\x83tT'!\x91+@<+\xf4\x1c\xfb\xa8\x02\xc0"
p1173
tp1174
bag2
(g3
(I0
tp1175
g5
tp1176
Rp1177
(I1
(I3
tp1178
g12
I00
S'\x81\x19\xcf9\xaa\xe3?@\xcblz\xe9\xf9!+@<+\xf4\x1c\xfb\xa8\x02\xc0'
p1179
tp1180
bag2
(g3
(I0
tp1181
g5
tp1182
Rp1183
(I1
(I3
tp1184
g12
I00
S'hk\x1d\x13\xa9\xae?@\x13e\xa0\xab\xd2\xb2*@<+\xf4\x1c\xfb\xa8\x02\xc0'
p1185
tp1186
bag2
(g3
(I0
tp1187
g5
tp1188
Rp1189
(I1
(I3
tp1190
g12
I00
S'P\xbdk\xec\xa7y?@[]\xc6m\xabC*@<+\xf4\x1c\xfb\xa8\x02\xc0'
p1191
tp1192
bag2
(g3
(I0
tp1193
g5
tp1194
Rp1195
(I1
(I3
tp1196
g12
I00
S'8\x0f\xba\xc5\xa6D?@\xa3U\xec/\x84\xd4)@<+\xf4\x1c\xfb\xa8\x02\xc0'
p1197
tp1198
bag2
(g3
(I0
tp1199
g5
tp1200
Rp1201
(I1
(I3
tp1202
g12
I00
S'\xa6\x86\x9b&;+?@\xdc\x0f\x99Z5\x9f)@<+\xf4\x1c\xfb\xa8\x02\xc0'
p1203
tp1204
bag2
(g3
(I0
tp1205
g5
tp1206
Rp1207
(I1
(I3
tp1208
g12
I00
S'U\xb4\xf5\xabt(?@\x12\xe3\xe0pc\x99)@\xeb\x1a\xc2\xc46\x14\x03\xc0'
p1209
tp1210
bag2
(g3
(I0
tp1211
g5
tp1212
Rp1213
(I1
(I3
tp1214
g12
I00
S'\xd65\xa5-\x88%?@\x04#\xe2\xef\xdd\x93)@\x9b\n\x90lr\x7f\x03\xc0'
p1215
tp1216
bag2
(g3
(I0
tp1217
g5
tp1218
Rp1219
(I1
(I3
tp1220
g12
I00
S'\xc5\xa1\xdd\xb8w"?@w\xfao\xb7\xa8\x8e)@J\xfa]\x14\xae\xea\x03\xc0'
p1221
tp1222
bag2
(g3
(I0
tp1223
g5
tp1224
Rp1225
(I1
(I3
tp1226
g12
I00
S'\x97\x88\x0etE\x1f?@\x90M\x08o\xc7\x89)@\xf9\xe9+\xbc\xe9U\x04\xc0'
p1227
tp1228
bag2
(g3
(I0
tp1229
g5
tp1230
Rp1231
(I1
(I3
tp1232
g12
I00
S'\x08:a\x9d\xf3\x1b?@\xcfOC\x83=\x85)@\xa9\xd9\xf9c%\xc1\x04\xc0'
p1233
tp1234
bag2
(g3
(I0
tp1235
g5
tp1236
Rp1237
(I1
(I3
tp1238
g12
I00
S'\xb4\xe4%\x89\x84\x18?@\xbaml#\x0e\x81)@X\xc9\xc7\x0ba,\x05\xc0'
p1239
tp1240
bag2
(g3
(I0
tp1241
g5
tp1242
Rp1243
(I1
(I3
tp1244
g12
I00
S'\x98*1\xa0\xfa\x14?@\xc69F?<})@\x08\xb9\x95\xb3\x9c\x97\x05\xc0'
p1245
tp1246
bag2
(g3
(I0
tp1247
g5
tp1248
Rp1249
(I1
(I3
tp1250
g12
I00
S'\x00P+^X\x11?@\xfe\xed\xfa\x84\xcay)@\xb7\xa8c[\xd8\x02\x06\xc0'
p1251
tp1252
bag2
(g3
(I0
tp1253
g5
tp1254
Rp1255
(I1
(I3
tp1256
g12
I00
S'\xac4\xd2O\xa0\r?@r\xf4:_\xbbv)@f\x981\x03\x14n\x06\xc0'
p1257
tp1258
bag2
(g3
(I0
tp1259
g5
tp1260
Rp1261
(I1
(I3
tp1262
g12
I00
S'\x0fP/\x11\xd5\t?@W\xc8\x8a\xf3\x10t)@\x16\x88\xff\xaaO\xd9\x06\xc0'
p1263
tp1264
bag2
(g3
(I0
tp1265
g5
tp1266
Rp1267
(I1
(I3
tp1268
g12
I00
S'\x13\xf2\xc2K\xf9\x05?@b`\xc1 \xcdq)@\xc5w\xcdR\x8bD\x07\xc0'
p1269
tp1270
bag2
(g3
(I0
tp1271
g5
tp1272
Rp1273
(I1
(I3
tp1274
g12
I00
S'M\x11\xa6\xb4\x0f\x02?@\x021\xb8}\xf1o)@tg\x9b\xfa\xc6\xaf\x07\xc0'
p1275
tp1276
bag2
(g3
(I0
tp1277
g5
tp1278
Rp1279
(I1
(I3
tp1280
g12
I00
S'\xd2y\x0b\xa4E\x00?@:\x92n\x0fJo)@`[\xda\\H\xe0\x07\xc0'
p1281
tp1282
bag2
(g3
(I0
tp1283
g5
tp1284
Rp1285
(I1
(I3
tp1286
g12
I00
S'e\x04`\xf4\xff\xff>@!\x1f\x80\xcd\xa3p)@_[\xda\\H\xe0\x07\xc0'
p1287
tp1288
bag2
(g3
(I0
tp1289
g5
tp1290
Rp1291
(I1
(I3
tp1292
g12
I00
S'\xd6\xea\x0b1\x07\xfc>@T\xc5N\xb9ao)@\x0eK\xa8\x04\x84K\x08\xc0'
p1293
tp1294
bag2
(g3
(I0
tp1295
g5
tp1296
Rp1297
(I1
(I3
tp1298
g12
I00
S'\xa7\xc1\xd4d\x07\xf8>@c\xcfM\x83\x8an)@\xbe:v\xac\xbf\xb6\x08\xc0'
p1299
tp1300
bag2
(g3
(I0
tp1301
g5
tp1302
Rp1303
(I1
(I3
tp1304
g12
I00
S'\x14\xee\x1a^\x03\xf4>@N\x80\x7f\xc2\x1en)@m*DT\xfb!\t\xc0'
p1305
tp1306
bag2
(g3
(I0
tp1307
g5
tp1308
Rp1309
(I1
(I3
tp1310
g12
I00
S'V\xd3\xd9\x02N\xf3>@M\x80\x7f\xc2\x1en)@\xf8\xbb&(\x17\x0f\t@'
p1311
tp1312
bag2
(g3
(I0
tp1313
g5
tp1314
Rp1315
(I1
(I3
tp1316
g12
I00
S'\xaf\x94-\x0c\x82\xa6>@\x04\x9d\xb0w\x89o)@\xf8\xbb&(\x17\x0f\t@'
p1317
tp1318
bag2
(g3
(I0
tp1319
g5
tp1320
Rp1321
(I1
(I3
tp1322
g12
I00
S'\x94\xb6SL\xd4m>@\xaaT\xa2(\x95p)@\xf8\xbb&(\x17\x0f\t@'
p1323
tp1324
bag2
(g3
(I0
tp1325
g5
tp1326
Rp1327
(I1
(I3
tp1328
g12
I00
S'\xf3`\xa5\xe7\xcei>@\xd3uj&\xa8p)@\x88\xae\x93\xd8\xa3\xc9\x08\xc0'
p1329
tp1330
bag2
(g3
(I0
tp1331
g5
tp1332
Rp1333
(I1
(I3
tp1334
g12
I00
S'\xaa\xe6h\x10lf>@)\xc5\xfaQ]p)@G\xf2\xec\x91Bo\x08\xc0'
p1335
tp1336
bag2
(g3
(I0
tp1337
g5
tp1338
Rp1339
(I1
(I3
tp1340
g12
I00
S'@\xf8\xffZff>@!\x1f\x80\xcd\xa3p)@G\xf2\xec\x91Bo\x08\xc0'
p1341
tp1342
bag2
(g3
(I0
tp1343
g5
tp1344
Rp1345
(I1
(I3
tp1346
g12
I00
S'\x95\xdb\xf0\xd5db>@\x18\xe4*\\\xf0o)@\xf6\xe1\xba9~\xda\x08\xc0'
p1347
tp1348
bag2
(g3
(I0
tp1349
g5
tp1350
Rp1351
(I1
(I3
tp1352
g12
I00
S'\x1dN\x96\x06`^>@i\xa4\xa0\x81\xa8o)@\x8a\x88\xff\xc6<\xfe\x08@'
p1353
tp1354
bag2
(g3
(I0
tp1355
g5
tp1356
Rp1357
(I1
(I3
tp1358
g12
I00
S'\xb9\x0e\xd5\xbeZZ>@SlLp\xcco)@\xdb\x981\x1f\x01\x93\x08@'
p1359
tp1360
bag2
(g3
(I0
tp1361
g5
tp1362
Rp1363
(I1
(I3
tp1364
g12
I00
S"\xe6W\xe6\xd0WV>@\x0e\xba\xf7\x0e\\p)@,\xa9cw\xc5'\x08@"
p1365
tp1366
bag2
(g3
(I0
tp1367
g5
tp1368
Rp1369
(I1
(I3
tp1370
g12
I00
S'\x01\x1b]\rZR>@\xc3.\xdc\xf8Vq)@|\xb9\x95\xcf\x89\xbc\x07@'
p1371
tp1372
bag2
(g3
(I0
tp1373
g5
tp1374
Rp1375
(I1
(I3
tp1376
g12
I00
S"\xd6c,AdN>@\xbbD\xea}\xbcr)@\xcd\xc9\xc7'NQ\x07@"
p1377
tp1378
bag2
(g3
(I0
tp1379
g5
tp1380
Rp1381
(I1
(I3
tp1382
g12
I00
S'IG\xb03yJ>@\n\xd9D\xa3\x8bt)@\x1e\xda\xf9\x7f\x12\xe6\x06@'
p1383
tp1384
bag2
(g3
(I0
tp1385
g5
tp1386
Rp1387
(I1
(I3
tp1388
g12
I00
S'\x0f\xbe\xba\xa4\x9bF>@(2\xf1#\xc3v)@n\xea+\xd8\xd6z\x06@'
p1389
tp1390
bag2
(g3
(I0
tp1391
g5
tp1392
Rp1393
(I1
(I3
tp1394
g12
I00
S'\xb9\xc9\xa5J\xceB>@\xde\x07\xbbqay)@\xbf\xfa]0\x9b\x0f\x06@'
p1395
tp1396
bag2
(g3
(I0
tp1397
g5
tp1398
Rp1399
(I1
(I3
tp1400
g12
I00
S'\x98>l\xd0\x13?>@\x89\xecK\xb6d|)@\x10\x0b\x90\x88_\xa4\x05@'
p1401
tp1402
bag2
(g3
(I0
tp1403
g5
tp1404
Rp1405
(I1
(I3
tp1406
g12
I00
S'V\x88\xca\xd3n;>@\xabSu\xd4\xca\x7f)@`\x1b\xc2\xe0#9\x05@'
p1407
tp1408
bag2
(g3
(I0
tp1409
g5
tp1410
Rp1411
(I1
(I3
tp1412
g12
I00
S'\x89\xb9h\xe3\xe17>@7N\xaci\x91\x83)@\xb1+\xf48\xe8\xcd\x04@'
p1413
tp1414
bag2
(g3
(I0
tp1415
g5
tp1416
Rp1417
(I1
(I3
tp1418
g12
I00
S'\xfd/\x0f}o4>@\x1e\xf2\xb5\xcf\xb5\x87)@\x02<&\x91\xacb\x04@'
p1419
tp1420
bag2
(g3
(I0
tp1421
g5
tp1422
Rp1423
(I1
(I3
tp1424
g12
I00
S'\xc1+\xa5\x7f\x173>@\xe0\xf2\x0e\xdc\x85\x89)@7\xf8B\xdas7\x04@'
p1425
tp1426
bag2
(g3
(I0
tp1427
g5
tp1428
Rp1429
(I1
(I3
tp1430
g12
I00
S'\xd1\x18\xe2\x97W\xf4=@\x96\x83a@\x15\xe2)@7\xf8B\xdas7\x04@'
p1431
tp1432
bag2
(g3
(I0
tp1433
g5
tp1434
Rp1435
(I1
(I3
tp1436
g12
I00
S'\xe1\x05\x1f\xb0\x97\xb5=@M\x14\xb4\xa4\xa4:*@7\xf8B\xdas7\x04@'
p1437
tp1438
bag2
(g3
(I0
tp1439
g5
tp1440
Rp1441
(I1
(I3
tp1442
g12
I00
S'\xf1\xf2[\xc8\xd7v=@\x03\xa5\x06\t4\x93*@7\xf8B\xdas7\x04@'
p1443
tp1444
bag2
(g3
(I0
tp1445
g5
tp1446
Rp1447
(I1
(I3
tp1448
g12
I00
S'\x01\xe0\x98\xe0\x178=@\xb95Ym\xc3\xeb*@7\xf8B\xdas7\x04@'
p1449
tp1450
bag2
(g3
(I0
tp1451
g5
tp1452
Rp1453
(I1
(I3
tp1454
g12
I00
S'\x11\xcd\xd5\xf8W\xf9<@o\xc6\xab\xd1RD+@7\xf8B\xdas7\x04@'
p1455
tp1456
bag2
(g3
(I0
tp1457
g5
tp1458
Rp1459
(I1
(I3
tp1460
g12
I00
S'\xf1\x1f\xe0\xda\xe0\xc4<@\x04$\xa9}^\x8e+@7\xf8B\xdas7\x04@'
p1461
tp1462
bag2
(g3
(I0
tp1463
g5
tp1464
Rp1465
(I1
(I3
tp1466
g12
I00
S'B\xcc8\xc0\x97\xc1<@:\x11\xea\x8f\x01\x93+@\xe6\xe7\x10\x82\xaf\xa2\x04@'
p1467
tp1468
bag2
(g3
(I0
tp1469
g5
tp1470
Rp1471
(I1
(I3
tp1472
g12
I00
S'\x1f\x8aw\xbc0\xbe<@i\x84v\xf7J\x97+@\x95\xd7\xde)\xeb\r\x05@'
p1473
tp1474
bag2
(g3
(I0
tp1475
g5
tp1476
Rp1477
(I1
(I3
tp1478
g12
I00
S'Sb\xc82\xae\xba<@\x89#H\xb27\x9b+@D\xc7\xac\xd1&y\x05@'
p1479
tp1480
bag2
(g3
(I0
tp1481
g5
tp1482
Rp1483
(I1
(I3
tp1484
g12
I00
S'BW\xa7\x99\x12\xb7<@\xca\xb4_\xff\xc4\x9e+@\xf4\xb6zyb\xe4\x05@'
p1485
tp1486
bag2
(g3
(I0
tp1487
g5
tp1488
Rp1489
(I1
(I3
tp1490
g12
I00
S'=\xff%y`\xb3<@\xea\xcc\xb3`\xf0\xa1+@\xa3\xa6H!\x9eO\x06@'
p1491
tp1492
bag2
(g3
(I0
tp1493
g5
tp1494
Rp1495
(I1
(I3
tp1496
g12
I00
S'\x01xt\x1c\x1d\xb3<@\xa8\xa1\x9a\xf8!\xa2+@_<\xe7J\x18W\x06@'
p1497
tp1498
bag2
(g3
(I0
tp1499
g5
tp1500
Rp1501
(I1
(I3
tp1502
g12
I00
S'~\xfao(3\xb3<@[\x02\xe0\xff\xd6\xa3+@_<\xe7J\x18W\x06@'
p1503
tp1504
bag2
(g3
(I0
tp1505
g5
tp1506
Rp1507
(I1
(I3
tp1508
g12
I00
S'\xf4)\xb4\xcdk\xaf<@\xc2\xe7\n-\x97\xa6+@\xb0L\x19\xa3\xdc\xeb\x05@'
p1509
tp1510
bag2
(g3
(I0
tp1511
g5
tp1512
Rp1513
(I1
(I3
tp1514
g12
I00
S'\x81DS&Q\xad<@q\x03Fw`\xa8+@7\x06\xc1\x0b\xe8\xae\x05@'
p1515
tp1516
bag2
(g3
(I0
tp1517
g5
tp1518
Rp1519
(I1
(I3
tp1520
g12
I00
S'\xb4h#\xea\x8bg<@/Q\x9f\xfb\x92\xe8+@7\x06\xc1\x0b\xe8\xae\x05@'
p1521
tp1522
bag2
(g3
(I0
tp1523
g5
tp1524
Rp1525
(I1
(I3
tp1526
g12
I00
S'\xe6\x8c\xf3\xad\xc6!<@\xee\x9e\xf8\x7f\xc5(,@7\x06\xc1\x0b\xe8\xae\x05@'
p1527
tp1528
bag2
(g3
(I0
tp1529
g5
tp1530
Rp1531
(I1
(I3
tp1532
g12
I00
S'\x19\xb1\xc3q\x01\xdc;@\xad\xecQ\x04\xf8h,@7\x06\xc1\x0b\xe8\xae\x05@'
p1533
tp1534
bag2
(g3
(I0
tp1535
g5
tp1536
Rp1537
(I1
(I3
tp1538
g12
I00
S'K\xd5\x935<\x96;@k:\xab\x88*\xa9,@7\x06\xc1\x0b\xe8\xae\x05@'
p1539
tp1540
bag2
(g3
(I0
tp1541
g5
tp1542
Rp1543
(I1
(I3
tp1544
g12
I00
S'~\xf9c\xf9vP;@*\x88\x04\r]\xe9,@7\x06\xc1\x0b\xe8\xae\x05@'
p1545
tp1546
bag2
(g3
(I0
tp1547
g5
tp1548
Rp1549
(I1
(I3
tp1550
g12
I00
S'\xb0\x1d4\xbd\xb1\n;@\xe9\xd5]\x91\x8f)-@7\x06\xc1\x0b\xe8\xae\x05@'
p1551
tp1552
bag2
(g3
(I0
tp1553
g5
tp1554
Rp1555
(I1
(I3
tp1556
g12
I00
S'\xe3A\x04\x81\xec\xc4:@\xa7#\xb7\x15\xc2i-@7\x06\xc1\x0b\xe8\xae\x05@'
p1557
tp1558
bag2
(g3
(I0
tp1559
g5
tp1560
Rp1561
(I1
(I3
tp1562
g12
I00
S"\x15f\xd4D'\x7f:@fq\x10\x9a\xf4\xa9-@7\x06\xc1\x0b\xe8\xae\x05@"
p1563
tp1564
bag2
(g3
(I0
tp1565
g5
tp1566
Rp1567
(I1
(I3
tp1568
g12
I00
S"H\x8a\xa4\x08b9:@%\xbfi\x1e'\xea-@7\x06\xc1\x0b\xe8\xae\x05@"
p1569
tp1570
bag2
(g3
(I0
tp1571
g5
tp1572
Rp1573
(I1
(I3
tp1574
g12
I00
S'z\xaet\xcc\x9c\xf39@\xe4\x0c\xc3\xa2Y*.@7\x06\xc1\x0b\xe8\xae\x05@'
p1575
tp1576
bag2
(g3
(I0
tp1577
g5
tp1578
Rp1579
(I1
(I3
tp1580
g12
I00
S"\xac\xd2D\x90\xd7\xad9@\xa2Z\x1c'\x8cj.@7\x06\xc1\x0b\xe8\xae\x05@"
p1581
tp1582
bag2
(g3
(I0
tp1583
g5
tp1584
Rp1585
(I1
(I3
tp1586
g12
I00
S'\xdf\xf6\x14T\x12h9@a\xa8u\xab\xbe\xaa.@7\x06\xc1\x0b\xe8\xae\x05@'
p1587
tp1588
bag2
(g3
(I0
tp1589
g5
tp1590
Rp1591
(I1
(I3
tp1592
g12
I00
S'\x11\x1b\xe5\x17M"9@ \xf6\xce/\xf1\xea.@7\x06\xc1\x0b\xe8\xae\x05@'
p1593
tp1594
bag2
(g3
(I0
tp1595
g5
tp1596
Rp1597
(I1
(I3
tp1598
g12
I00
S'\xf9w^\xb1\xc7\x059@K\xf3\xdb]/\x05/@7\x06\xc1\x0b\xe8\xae\x05@'
p1599
tp1600
bag2
(g3
(I0
tp1601
g5
tp1602
Rp1603
(I1
(I3
tp1604
g12
I00
S'\xabb\x13{ \x029@\xea@=\xe0\x8b\x08/@\xe6\xf5\x8e\xb3#\x1a\x06@'
p1605
tp1606
bag2
(g3
(I0
tp1607
g5
tp1608
Rp1609
(I1
(I3
tp1610
g12
I00
S'\xb5\xdc^\xcc\x00\x009@\x89\xbe6\xb5<\n/@_<\xe7J\x18W\x06@'
p1611
tp1612
bag2
(g3
(I0
tp1613
g5
tp1614
Rp1615
(I1
(I3
tp1616
g12
I00
S'\xe7\xf8\x9f\xf6\xff\xff8@\xdf\xfd\xffd=\n/@_<\xe7J\x18W\x06@'
p1617
tp1618
bag2
(g3
(I0
tp1619
g5
tp1620
Rp1621
(I1
(I3
tp1622
g12
I00
S'](\xe4\x9b8\xfc8@F\xe3*\x92\xfd\x0c/@\x0e,\xb5\xf2S\xc2\x06@'
p1623
tp1624
bag2
(g3
(I0
tp1625
g5
tp1626
Rp1627
(I1
(I3
tp1628
g12
I00
S"\xf6\x82C'`\xf88@V>\x0b\x87W\x0f/@\xbe\x1b\x83\x9a\x8f-\x07@"
p1629
tp1630
bag2
(g3
(I0
tp1631
g5
tp1632
Rp1633
(I1
(I3
tp1634
g12
I00
S'kj\x83Ky\xf48@\x17\xd5?\x9dI\x11/@m\x0bQB\xcb\x98\x07@'
p1635
tp1636
bag2
(g3
(I0
tp1637
g5
tp1638
Rp1639
(I1
(I3
tp1640
g12
I00
S'\xedl\x84\xc5\x86\xf08@\xb4\x85Iw\xd2\x12/@\x1c\xfb\x1e\xea\x06\x04\x08@'
p1641
tp1642
bag2
(g3
(I0
tp1643
g5
tp1644
Rp1645
(I1
(I3
tp1646
g12
I00
S'\xddzVZ\x8b\xec8@o\x82\x80\x01\xf1\x13/@\xcc\xea\xec\x91Bo\x08@'
p1647
tp1648
bag2
(g3
(I0
tp1649
g5
tp1650
Rp1651
(I1
(I3
tp1652
g12
I00
S'i\xd2\xcct\xe5\xe98@\xf2\x1dV\x9fg\x14/@Wj\x9c\xdd$\xb6\x08@'
p1653
tp1654
bag2
(g3
(I0
tp1655
g5
tp1656
Rp1657
(I1
(I3
tp1658
g12
I00
S'\x8e\xac\xc6\xe73\x9d8@`\n\x8a&}\x1c/@Wj\x9c\xdd$\xb6\x08@'
p1659
tp1660
bag2
(g3
(I0
tp1661
g5
tp1662
Rp1663
(I1
(I3
tp1664
g12
I00
S'\xb3\x86\xc0Z\x82P8@\xcd\xf6\xbd\xad\x92$/@Wj\x9c\xdd$\xb6\x08@'
p1665
tp1666
bag2
(g3
(I0
tp1667
g5
tp1668
Rp1669
(I1
(I3
tp1670
g12
I00
S'\xd8`\xba\xcd\xd0\x038@:\xe3\xf14\xa8,/@Wj\x9c\xdd$\xb6\x08@'
p1671
tp1672
bag2
(g3
(I0
tp1673
g5
tp1674
Rp1675
(I1
(I3
tp1676
g12
I00
S'\xfd:\xb4@\x1f\xb77@\xa8\xcf%\xbc\xbd4/@Wj\x9c\xdd$\xb6\x08@'
p1677
tp1678
bag2
(g3
(I0
tp1679
g5
tp1680
Rp1681
(I1
(I3
tp1682
g12
I00
S'"\x15\xae\xb3mj7@\x15\xbcYC\xd3</@Wj\x9c\xdd$\xb6\x08@'
p1683
tp1684
bag2
(g3
(I0
tp1685
g5
tp1686
Rp1687
(I1
(I3
tp1688
g12
I00
S'G\xef\xa7&\xbc\x1d7@\x83\xa8\x8d\xca\xe8D/@Wj\x9c\xdd$\xb6\x08@'
p1689
tp1690
bag2
(g3
(I0
tp1691
g5
tp1692
Rp1693
(I1
(I3
tp1694
g12
I00
S'l\xc9\xa1\x99\n\xd16@\xf0\x94\xc1Q\xfeL/@Wj\x9c\xdd$\xb6\x08@'
p1695
tp1696
bag2
(g3
(I0
tp1697
g5
tp1698
Rp1699
(I1
(I3
tp1700
g12
I00
S'\x91\xa3\x9b\x0cY\x846@^\x81\xf5\xd8\x13U/@Wj\x9c\xdd$\xb6\x08@'
p1701
tp1702
bag2
(g3
(I0
tp1703
g5
tp1704
Rp1705
(I1
(I3
tp1706
g12
I00
S'\xb6}\x95\x7f\xa776@\xcbm)`)]/@Wj\x9c\xdd$\xb6\x08@'
p1707
tp1708
bag2
(g3
(I0
tp1709
g5
tp1710
Rp1711
(I1
(I3
tp1712
g12
I00
S'\xdbW\x8f\xf2\xf5\xea5@9Z]\xe7>e/@Wj\x9c\xdd$\xb6\x08@'
p1713
tp1714
bag2
(g3
(I0
tp1715
g5
tp1716
Rp1717
(I1
(I3
tp1718
g12
I00
S'\x002\x89eD\x9e5@\xa6F\x91nTm/@Wj\x9c\xdd$\xb6\x08@'
p1719
tp1720
bag2
(g3
(I0
tp1721
g5
tp1722
Rp1723
(I1
(I3
tp1724
g12
I00
S'$\x0c\x83\xd8\x92Q5@\x143\xc5\xf5iu/@Wj\x9c\xdd$\xb6\x08@'
p1725
tp1726
bag2
(g3
(I0
tp1727
g5
tp1728
Rp1729
(I1
(I3
tp1730
g12
I00
S'p\xe3\xca=n\x1e5@\xbf\xdc\x95\x05\xcez/@Wj\x9c\xdd$\xb6\x08@'
p1731
tp1732
bag2
(g3
(I0
tp1733
g5
tp1734
Rp1735
(I1
(I3
tp1736
g12
I00
S'\x89\x90&;j\x1a5@\xd8\x89\xcea:{/@\x06Zj\x85`!\t@'
p1737
tp1738
bag2
(g3
(I0
tp1739
g5
tp1740
Rp1741
(I1
(I3
tp1742
g12
I00
S'\xa5\xfbD\xcbd\x165@\x8e\xd0o\xfd:{/@z\x10P{Z\xb7\x08\xc0'
p1743
tp1744
bag2
(g3
(I0
tp1745
g5
tp1746
Rp1747
(I1
(I3
tp1748
g12
I00
S'"\x87{\xc0`\x125@\x1f}\x0c\xd8\xcfz/@\xcb \x82\xd3\x1eL\x08\xc0'
p1749
tp1750
bag2
(g3
(I0
tp1751
g5
tp1752
Rp1753
(I1
(I3
tp1754
g12
I00
S'\xa8\x04%\xec`\x0e5@\x1a*\xd3<\xf9y/@\x1c1\xb4+\xe3\xe0\x07\xc0'
p1755
tp1756
bag2
(g3
(I0
tp1757
g5
tp1758
Rp1759
(I1
(I3
tp1760
g12
I00
S'~\x8c\xa7\x1ch\n5@t\x7fY\xc2\xb7x/@lA\xe6\x83\xa7u\x07\xc0'
p1761
tp1762
bag2
(g3
(I0
tp1763
g5
tp1764
Rp1765
(I1
(I3
tp1766
g12
I00
S'\xd2g|\x1by\x065@\x0f\x892J\x0cw/@\xbdQ\x18\xdck\n\x07\xc0'
p1767
tp1768
bag2
(g3
(I0
tp1769
g5
tp1770
Rp1771
(I1
(I3
tp1772
g12
I00
S'\xb5o;\xab\x96\x025@\xe9nP\x00\xf8t/@\x0ebJ40\x9f\x06\xc0'
p1773
tp1774
bag2
(g3
(I0
tp1775
g5
tp1776
Rp1777
(I1
(I3
tp1778
g12
I00
S'\x01\xf6\xf7a\x04\x005@H\xfc\x92\xa6Ls/@_<\xe7J\x18W\x06\xc0'
p1779
tp1780
bag2
(g3
(I0
tp1781
g5
tp1782
Rp1783
(I1
(I3
tp1784
g12
I00
S'>\xf1\x1f\xf8\xff\xff4@\xab\xbc?\xcb\xa3p/@_<\xe7J\x18W\x06\xc0'
p1785
tp1786
bag2
(g3
(I0
tp1787
g5
tp1788
Rp1789
(I1
(I3
tp1790
g12
I00
S'\xb4 d\x9d8\xfc4@D\xd7\x14\x9e\xe3m/@\xb0L\x19\xa3\xdc\xeb\x05\xc0'
p1791
tp1792
bag2
(g3
(I0
tp1793
g5
tp1794
Rp1795
(I1
(I3
tp1796
g12
I00
S'T\xa7R\x03\x85\xf84@\xb4Y\xba&\xbfj/@\x00]K\xfb\xa0\x80\x05\xc0'
p1797
tp1798
bag2
(g3
(I0
tp1799
g5
tp1800
Rp1801
(I1
(I3
tp1802
g12
I00
S'\xb6j\xe2\x167\xf84@\x86\x8d\xb8#sj/@_\x9dd\t\x99w\x05\xc0'
p1803
tp1804
bag2
(g3
(I0
tp1805
g5
tp1806
Rp1807
(I1
(I3
tp1808
g12
I00
S'\xed\x81\xc8AV\xb34@\xf26m\x01\x82&/@_\x9dd\t\x99w\x05\xc0'
p1809
tp1810
bag2
(g3
(I0
tp1811
g5
tp1812
Rp1813
(I1
(I3
tp1814
g12
I00
S'$\x99\xaelun4@]\xe0!\xdf\x90\xe2.@_\x9dd\t\x99w\x05\xc0'
p1815
tp1816
bag2
(g3
(I0
tp1817
g5
tp1818
Rp1819
(I1
(I3
tp1820
g12
I00
S'[\xb0\x94\x97\x94)4@\xc9\x89\xd6\xbc\x9f\x9e.@_\x9dd\t\x99w\x05\xc0'
p1821
tp1822
bag2
(g3
(I0
tp1823
g5
tp1824
Rp1825
(I1
(I3
tp1826
g12
I00
S'\x92\xc7z\xc2\xb3\xe43@53\x8b\x9a\xaeZ.@_\x9dd\t\x99w\x05\xc0'
p1827
tp1828
bag2
(g3
(I0
tp1829
g5
tp1830
Rp1831
(I1
(I3
tp1832
g12
I00
S'\xc8\xde`\xed\xd2\x9f3@\xa0\xdc?x\xbd\x16.@_\x9dd\t\x99w\x05\xc0'
p1833
tp1834
bag2
(g3
(I0
tp1835
g5
tp1836
Rp1837
(I1
(I3
tp1838
g12
I00
S'\xff\xf5F\x18\xf2Z3@\x0c\x86\xf4U\xcc\xd2-@_\x9dd\t\x99w\x05\xc0'
p1839
tp1840
bag2
(g3
(I0
tp1841
g5
tp1842
Rp1843
(I1
(I3
tp1844
g12
I00
S'6\r-C\x11\x163@w/\xa93\xdb\x8e-@_\x9dd\t\x99w\x05\xc0'
p1845
tp1846
bag2
(g3
(I0
tp1847
g5
tp1848
Rp1849
(I1
(I3
tp1850
g12
I00
S'm$\x13n0\xd12@\xe3\xd8]\x11\xeaJ-@_\x9dd\t\x99w\x05\xc0'
p1851
tp1852
bag2
(g3
(I0
tp1853
g5
tp1854
Rp1855
(I1
(I3
tp1856
g12
I00
S'\xa4;\xf9\x98O\x8c2@N\x82\x12\xef\xf8\x06-@_\x9dd\t\x99w\x05\xc0'
p1857
tp1858
bag2
(g3
(I0
tp1859
g5
tp1860
Rp1861
(I1
(I3
tp1862
g12
I00
S'\xdbR\xdf\xc3nG2@\xba+\xc7\xcc\x07\xc3,@_\x9dd\t\x99w\x05\xc0'
p1863
tp1864
bag2
(g3
(I0
tp1865
g5
tp1866
Rp1867
(I1
(I3
tp1868
g12
I00
S'\x12j\xc5\xee\x8d\x022@%\xd5{\xaa\x16\x7f,@_\x9dd\t\x99w\x05\xc0'
p1869
tp1870
bag2
(g3
(I0
tp1871
g5
tp1872
Rp1873
(I1
(I3
tp1874
g12
I00
S'H\x81\xab\x19\xad\xbd1@\x91~0\x88%;,@_\x9dd\t\x99w\x05\xc0'
p1875
tp1876
bag2
(g3
(I0
tp1877
g5
tp1878
Rp1879
(I1
(I3
tp1880
g12
I00
S"\x7f\x98\x91D\xccx1@\xfc'\xe5e4\xf7+@_\x9dd\t\x99w\x05\xc0"
p1881
tp1882
bag2
(g3
(I0
tp1883
g5
tp1884
Rp1885
(I1
(I3
tp1886
g12
I00
S'\xb6\xafwo\xeb31@h\xd1\x99CC\xb3+@_\x9dd\t\x99w\x05\xc0'
p1887
tp1888
bag2
(g3
(I0
tp1889
g5
tp1890
Rp1891
(I1
(I3
tp1892
g12
I00
S'\xee\xc6]\x9a\n\xef0@\xd4zN!Ro+@_\x9dd\t\x99w\x05\xc0'
p1893
tp1894
bag2
(g3
(I0
tp1895
g5
tp1896
Rp1897
(I1
(I3
tp1898
g12
I00
S'$\xdeC\xc5)\xaa0@?$\x03\xff`++@_\x9dd\t\x99w\x05\xc0'
p1899
tp1900
bag2
(g3
(I0
tp1901
g5
tp1902
Rp1903
(I1
(I3
tp1904
g12
I00
S'[\xf5)\xf0He0@\xab\xcd\xb7\xdco\xe7*@_\x9dd\t\x99w\x05\xc0'
p1905
tp1906
bag2
(g3
(I0
tp1907
g5
tp1908
Rp1909
(I1
(I3
tp1910
g12
I00
S'\x92\x0c\x10\x1bh 0@\x16wl\xba~\xa3*@_\x9dd\t\x99w\x05\xc0'
p1911
tp1912
bag2
(g3
(I0
tp1913
g5
tp1914
Rp1915
(I1
(I3
tp1916
g12
I00
S'\x92G\xec\x8b\x0e\xb7/@\x82 !\x98\x8d_*@_\x9dd\t\x99w\x05\xc0'
p1917
tp1918
bag2
(g3
(I0
tp1919
g5
tp1920
Rp1921
(I1
(I3
tp1922
g12
I00
S'\x00v\xb8\xe1L-/@\xee\xc9\xd5u\x9c\x1b*@_\x9dd\t\x99w\x05\xc0'
p1923
tp1924
bag2
(g3
(I0
tp1925
g5
tp1926
Rp1927
(I1
(I3
tp1928
g12
I00
S'n\xa4\x847\x8b\xa3.@Zs\x8aS\xab\xd7)@_\x9dd\t\x99w\x05\xc0'
p1929
tp1930
bag2
(g3
(I0
tp1931
g5
tp1932
Rp1933
(I1
(I3
tp1934
g12
I00
S'\xdc\xd2P\x8d\xc9\x19.@\xc5\x1c?1\xba\x93)@_\x9dd\t\x99w\x05\xc0'
p1935
tp1936
bag2
(g3
(I0
tp1937
g5
tp1938
Rp1939
(I1
(I3
tp1940
g12
I00
S'J\x01\x1d\xe3\x07\x90-@0\xc6\xf3\x0e\xc9O)@_\x9dd\t\x99w\x05\xc0'
p1941
tp1942
bag2
(g3
(I0
tp1943
g5
tp1944
Rp1945
(I1
(I3
tp1946
g12
I00
S'\xb8/\xe98F\x06-@\x9co\xa8\xec\xd7\x0b)@_\x9dd\t\x99w\x05\xc0'
p1947
tp1948
bag2
(g3
(I0
tp1949
g5
tp1950
Rp1951
(I1
(I3
tp1952
g12
I00
S'&^\xb5\x8e\x84|,@\x08\x19]\xca\xe6\xc7(@_\x9dd\t\x99w\x05\xc0'
p1953
tp1954
bag2
(g3
(I0
tp1955
g5
tp1956
Rp1957
(I1
(I3
tp1958
g12
I00
S'\x94\x8c\x81\xe4\xc2\xf2+@t\xc2\x11\xa8\xf5\x83(@_\x9dd\t\x99w\x05\xc0'
p1959
tp1960
bag2
(g3
(I0
tp1961
g5
tp1962
Rp1963
(I1
(I3
tp1964
g12
I00
S'\x02\xbbM:\x01i+@\xdfk\xc6\x85\x04@(@_\x9dd\t\x99w\x05\xc0'
p1965
tp1966
bag2
(g3
(I0
tp1967
g5
tp1968
Rp1969
(I1
(I3
tp1970
g12
I00
S"p\xe9\x19\x90?\xdf*@J\x15{c\x13\xfc'@_\x9dd\t\x99w\x05\xc0"
p1971
tp1972
bag2
(g3
(I0
tp1973
g5
tp1974
Rp1975
(I1
(I3
tp1976
g12
I00
S'\xdc\x17\xe6\xe5}U*@\xb6\xbe/A"\xb8\'@_\x9dd\t\x99w\x05\xc0'
p1977
tp1978
bag2
(g3
(I0
tp1979
g5
tp1980
Rp1981
(I1
(I3
tp1982
g12
I00
S"c\xadn\xed\xea@*@\xadp\x90\x91\xfc\xad'@_\x9dd\t\x99w\x05\xc0"
p1983
tp1984
bag2
(g3
(I0
tp1985
g5
tp1986
Rp1987
(I1
(I3
tp1988
g12
I00
S"/l\xeck\xb49*@yE\xc2\xddm\xaa'@\xb0\xad\x96a]\x0c\x05\xc0"
p1989
tp1990
bag2
(g3
(I0
tp1991
g5
tp1992
Rp1993
(I1
(I3
tp1994
g12
I00
S"\xa6\xf9\xd5\x1b\xb02*@\xd4\xfc\xf7\xc5\x7f\xa6'@\x00\xbe\xc8\xb9!\xa1\x04\xc0"
p1995
tp1996
bag2
(g3
(I0
tp1997
g5
tp1998
Rp1999
(I1
(I3
tp2000
g12
I00
S"]T\x9a\xe9\xe2+*@'\xae%\x0c5\xa2'@Q\xce\xfa\x11\xe65\x04\xc0"
p2001
tp2002
bag2
(g3
(I0
tp2003
g5
tp2004
Rp2005
(I1
(I3
tp2006
g12
I00
S"\x13\xe7\xfb\x9aQ%*@L\x0f?\xb3\x90\x9d'@\xa2\xde,j\xaa\xca\x03\xc0"
p2007
tp2008
bag2
(g3
(I0
tp2009
g5
tp2010
Rp2011
(I1
(I3
tp2012
g12
I00
S"z@\xb7\xcb\x00\x1f*@\xc2~\x1a\xfd\x95\x98'@\xf2\xee^\xc2n_\x03\xc0"
p2013
tp2014
bag2
(g3
(I0
tp2015
g5
tp2016
Rp2017
(I1
(I3
tp2018
g12
I00
S"\xa0GG\xea\xf4\x18*@\xc8\xed'hH\x93'@C\xff\x90\x1a3\xf4\x02\xc0"
p2019
tp2020
bag2
(g3
(I0
tp2021
g5
tp2022
Rp2023
(I1
(I3
tp2024
g12
I00
S"\xac1\xc942\x13*@\xefD\xfd\xac\xab\x8d'@\x94\x0f\xc3r\xf7\x88\x02\xc0"
p2025
tp2026
bag2
(g3
(I0
tp2027
g5
tp2028
Rp2029
(I1
(I3
tp2030
g12
I00
S"\x9fg\x02\xb6\xbc\r*@\x82\xfb\xb9\xbb\xc3\x87'@\xe5\x1f\xf5\xca\xbb\x1d\x02\xc0"
p2031
tp2032
bag2
(g3
(I0
tp2033
g5
tp2034
Rp2035
(I1
(I3
tp2036
g12
I00
S"\xcar\x8aB\x98\x08*@\xcb\xb6C\xb9\x94\x81'@60'#\x80\xb2\x01\xc0"
p2037
tp2038
bag2
(g3
(I0
tp2039
g5
tp2040
Rp2041
(I1
(I3
tp2042
g12
I00
S'l\xed\x1av\xc8\x03*@\x8d\xe1]\xfc"{\'@\x86@Y{DG\x01\xc0'
p2043
tp2044
bag2
(g3
(I0
tp2045
g5
tp2046
Rp2047
(I1
(I3
tp2048
g12
I00
S"^Z\x07\xb1P\xff)@\xfeE\x9e\nst'@\xd6P\x8b\xd3\x08\xdc\x00\xc0"
p2049
tp2050
bag2
(g3
(I0
tp2051
g5
tp2052
Rp2053
(I1
(I3
tp2054
g12
I00
S"\x06t\xd6xJ\xfe)@j ^>\xbar'@JW-8R\xc1\x00\xc0"
p2055
tp2056
bag2
(g3
(I0
tp2057
g5
tp2058
Rp2059
(I1
(I3
tp2060
g12
I00
S"\xd8\xc3?\xf6\xff\xff)@Y\xad?\xce\xa3p'@JW-8R\xc1\x00\xc0"
p2061
tp2062
bag2
(g3
(I0
tp2063
g5
tp2064
Rp2065
(I1
(I3
tp2066
g12
I00
S"'>[\x86\xfa\xfb)@\xdei\xb1\xc4\xaci'@\xfaF\xfb\xdf\x8d,\x01\xc0"
p2067
tp2068
bag2
(g3
(I0
tp2069
g5
tp2070
Rp2071
(I1
(I3
tp2072
g12
I00
S"\x04Y\xd6\xb5H\xff)@f\x00\x9a\xc7\xc3n'@\xf0\\\x8e^\xa2\xdb\x00\xc0"
p2073
tp2074
bag2
(g3
(I0
tp2075
g5
tp2076
Rp2077
(I1
(I3
tp2078
g12
I00
S'\xbeY\xf1\x04\xc8\xb0)@\x13o<\xaf\xbd\xea&@\xf0\\\x8e^\xa2\xdb\x00\xc0'
p2079
tp2080
bag2
(g3
(I0
tp2081
g5
tp2082
Rp2083
(I1
(I3
tp2084
g12
I00
S'yZ\x0cTGb)@\xbf\xdd\xde\x96\xb7f&@\xf0\\\x8e^\xa2\xdb\x00\xc0'
p2085
tp2086
bag2
(g3
(I0
tp2087
g5
tp2088
Rp2089
(I1
(I3
tp2090
g12
I00
S"3['\xa3\xc6\x13)@kL\x81~\xb1\xe2%@\xf0\\\x8e^\xa2\xdb\x00\xc0"
p2091
tp2092
bag2
(g3
(I0
tp2093
g5
tp2094
Rp2095
(I1
(I3
tp2096
g12
I00
S'\xee[B\xf2E\xc5(@\x17\xbb#f\xab^%@\xf0\\\x8e^\xa2\xdb\x00\xc0'
p2097
tp2098
bag2
(g3
(I0
tp2099
g5
tp2100
Rp2101
(I1
(I3
tp2102
g12
I00
S'\xa8\\]A\xc5v(@\xc4)\xc6M\xa5\xda$@\xf0\\\x8e^\xa2\xdb\x00\xc0'
p2103
tp2104
bag2
(g3
(I0
tp2105
g5
tp2106
Rp2107
(I1
(I3
tp2108
g12
I00
S'c]x\x90D((@p\x98h5\x9fV$@\xf0\\\x8e^\xa2\xdb\x00\xc0'
p2109
tp2110
bag2
(g3
(I0
tp2111
g5
tp2112
Rp2113
(I1
(I3
tp2114
g12
I00
S"\x1e^\x93\xdf\xc3\xd9'@\x1c\x07\x0b\x1d\x99\xd2#@\xf0\\\x8e^\xa2\xdb\x00\xc0"
p2115
tp2116
bag2
(g3
(I0
tp2117
g5
tp2118
Rp2119
(I1
(I3
tp2120
g12
I00
S"\xd8^\xae.C\x8b'@\xc8u\xad\x04\x93N#@\xf0\\\x8e^\xa2\xdb\x00\xc0"
p2121
tp2122
bag2
(g3
(I0
tp2123
g5
tp2124
Rp2125
(I1
(I3
tp2126
g12
I00
S'\x93_\xc9}\xc2<\'@t\xe4O\xec\x8c\xca"@\xf0\\\x8e^\xa2\xdb\x00\xc0'
p2127
tp2128
bag2
(g3
(I0
tp2129
g5
tp2130
Rp2131
(I1
(I3
tp2132
g12
I00
S'M`\xe4\xccA\xee&@ S\xf2\xd3\x86F"@\xf0\\\x8e^\xa2\xdb\x00\xc0'
p2133
tp2134
bag2
(g3
(I0
tp2135
g5
tp2136
Rp2137
(I1
(I3
tp2138
g12
I00
S'\x08a\xff\x1b\xc1\x9f&@\xcd\xc1\x94\xbb\x80\xc2!@\xf0\\\x8e^\xa2\xdb\x00\xc0'
p2139
tp2140
bag2
(g3
(I0
tp2141
g5
tp2142
Rp2143
(I1
(I3
tp2144
g12
I00
S'\xc2a\x1ak@Q&@y07\xa3z>!@\xf0\\\x8e^\xa2\xdb\x00\xc0'
p2145
tp2146
bag2
(g3
(I0
tp2147
g5
tp2148
Rp2149
(I1
(I3
tp2150
g12
I00
S'}b5\xba\xbf\x02&@%\x9f\xd9\x8at\xba @\xf0\\\x8e^\xa2\xdb\x00\xc0'
p2151
tp2152
bag2
(g3
(I0
tp2153
g5
tp2154
Rp2155
(I1
(I3
tp2156
g12
I00
S'8cP\t?\xb4%@\xd2\r|rn6 @\xf0\\\x8e^\xa2\xdb\x00\xc0'
p2157
tp2158
bag2
(g3
(I0
tp2159
g5
tp2160
Rp2161
(I1
(I3
tp2162
g12
I00
S'}\x8e\xab"\xe1\x9a%@\xc7\xbd*,\xc5\x0b @\xf0\\\x8e^\xa2\xdb\x00\xc0'
p2163
tp2164
bag2
(g3
(I0
tp2165
g5
tp2166
Rp2167
(I1
(I3
tp2168
g12
I00
S'\xd0\xdb\t\xe0\xc4\x96%@\xd1\xa0&\x82\xdb\x04 @Am\xc0\xb6fp\x00\xc0'
p2169
tp2170
bag2
(g3
(I0
tp2171
g5
tp2172
Rp2173
(I1
(I3
tp2174
g12
I00
S'\xef\xf7`\xf3\x97\x99%@n\xdd\xde\xa7:\n @JW-8R\xc1\x00\xc0'
p2175
tp2176
baaccopy_reg
_reconstructor
p2177
(cgeometry_msgs.msg._PoseArray
PoseArray
p2178
c__builtin__
object
p2179
Ntp2180
Rp2181
(lp2182
g2177
(cstd_msgs.msg._Header
Header
p2183
g2179
Ntp2184
Rp2185
(lp2186
I0
ag2177
(crospy.rostime
Time
p2187
g2179
Ntp2188
Rp2189
(lp2190
I1544308920
aI148085117
abaS'map'
p2191
aba(lp2192
g2177
(cgeometry_msgs.msg._Pose
Pose
p2193
g2179
Ntp2194
Rp2195
(lp2196
g2177
(cgeometry_msgs.msg._Point
Point
p2197
g2179
Ntp2198
Rp2199
(lp2200
F49.9999988824
aF11.9199997336
aI0
abag2177
(cgeometry_msgs.msg._Quaternion
Quaternion
p2201
g2179
Ntp2202
Rp2203
(lp2204
F0.0
aF0.0
aF-0.09853733595636166
aF0.9951333545925506
ababag2177
(g2193
g2179
Ntp2205
Rp2206
(lp2207
g2177
(g2197
g2179
Ntp2208
Rp2209
(lp2210
F50.01540180938102
aF11.916919157283049
aI0
abag2177
(g2201
g2179
Ntp2211
Rp2212
(lp2213
F0.0
aF0.0
aF-0.12455312405496391
aF0.9922129404962167
ababag2177
(g2193
g2179
Ntp2214
Rp2215
(lp2216
g2177
(g2197
g2179
Ntp2217
Rp2218
(lp2219
F50.00694734713596
aF11.919075728494871
aI0
abag2177
(g2201
g2179
Ntp2220
Rp2221
(lp2222
F0.0
aF0.0
aF-0.11011173906516075
aF0.9939192144837758
ababag2177
(g2193
g2179
Ntp2223
Rp2224
(lp2225
g2177
(g2197
g2179
Ntp2226
Rp2227
(lp2228
F50.29967259008799
aF11.853410424576618
aI0
abag2177
(g2201
g2179
Ntp2229
Rp2230
(lp2231
F0.0
aF0.0
aF-0.11011173906516075
aF0.9939192144837758
ababag2177
(g2193
g2179
Ntp2232
Rp2233
(lp2234
g2177
(g2197
g2179
Ntp2235
Rp2236
(lp2237
F50.59239783304002
aF11.787745120658366
aI0
abag2177
(g2201
g2179
Ntp2238
Rp2239
(lp2240
F0.0
aF0.0
aF-0.11011173906516075
aF0.9939192144837758
ababag2177
(g2193
g2179
Ntp2241
Rp2242
(lp2243
g2177
(g2197
g2179
Ntp2244
Rp2245
(lp2246
F50.88512307599204
aF11.722079816740115
aI0
abag2177
(g2201
g2179
Ntp2247
Rp2248
(lp2249
F0.0
aF0.0
aF-0.11011173906516075
aF0.9939192144837758
ababag2177
(g2193
g2179
Ntp2250
Rp2251
(lp2252
g2177
(g2197
g2179
Ntp2253
Rp2254
(lp2255
F51.17784831894407
aF11.656414512821861
aI0
abag2177
(g2201
g2179
Ntp2256
Rp2257
(lp2258
F0.0
aF0.0
aF-0.11011173906516075
aF0.9939192144837758
ababag2177
(g2193
g2179
Ntp2259
Rp2260
(lp2261
g2177
(g2197
g2179
Ntp2262
Rp2263
(lp2264
F51.470573561896096
aF11.59074920890361
aI0
abag2177
(g2201
g2179
Ntp2265
Rp2266
(lp2267
F0.0
aF0.0
aF-0.11011173906516075
aF0.9939192144837758
ababag2177
(g2193
g2179
Ntp2268
Rp2269
(lp2270
g2177
(g2197
g2179
Ntp2271
Rp2272
(lp2273
F51.76329880484813
aF11.525083904985356
aI0
abag2177
(g2201
g2179
Ntp2274
Rp2275
(lp2276
F0.0
aF0.0
aF-0.11011173906516075
aF0.9939192144837758
ababag2177
(g2193
g2179
Ntp2277
Rp2278
(lp2279
g2177
(g2197
g2179
Ntp2280
Rp2281
(lp2282
F51.831845325411436
aF11.509707273780148
aI0
abag2177
(g2201
g2179
Ntp2283
Rp2284
(lp2285
F0.0
aF0.0
aF-0.11011173906516075
aF0.9939192144837758
ababag2177
(g2193
g2179
Ntp2286
Rp2287
(lp2288
g2177
(g2197
g2179
Ntp2289
Rp2290
(lp2291
F51.847172383291074
aF11.50626904650706
aI0
abag2177
(g2201
g2179
Ntp2292
Rp2293
(lp2294
F0.0
aF0.0
aF-0.08405623462254147
aF0.9964610124942572
ababag2177
(g2193
g2179
Ntp2295
Rp2296
(lp2297
g2177
(g2197
g2179
Ntp2298
Rp2299
(lp2300
F51.86265837888269
aF11.503637687435477
aI0
abag2177
(g2201
g2179
Ntp2301
Rp2302
(lp2303
F0.0
aF0.0
aF-0.057943122235414514
aF0.9983198859011133
ababag2177
(g2193
g2179
Ntp2304
Rp2305
(lp2306
g2177
(g2197
g2179
Ntp2307
Rp2308
(lp2309
F51.87826086614879
aF11.50182040893771
aI0
abag2177
(g2201
g2179
Ntp2310
Rp2311
(lp2312
F0.0
aF0.0
aF-0.03179029852663095
aF0.9994945607253637
ababag2177
(g2193
g2179
Ntp2313
Rp2314
(lp2315
g2177
(g2197
g2179
Ntp2316
Rp2317
(lp2318
F51.89393707975629
aF11.500822192047806
aI0
abag2177
(g2201
g2179
Ntp2319
Rp2320
(lp2321
F0.0
aF0.0
aF-0.0056156873351980545
aF0.9999842319035602
ababag2177
(g2193
g2179
Ntp2322
Rp2323
(lp2324
g2177
(g2197
g2179
Ntp2325
Rp2326
(lp2327
F51.90964405229334
aF11.500645772808875
aI0
abag2177
(g2201
g2179
Ntp2328
Rp2329
(lp2330
F0.0
aF0.0
aF0.02056277256782454
aF0.999788563839537
ababag2177
(g2193
g2179
Ntp2331
Rp2332
(lp2333
g2177
(g2197
g2179
Ntp2334
Rp2335
(lp2336
F51.925338732039975
aF11.501291634773786
aI0
abag2177
(g2201
g2179
Ntp2337
Rp2338
(lp2339
F0.0
aF0.0
aF0.04672713977366256
aF0.9989076906344112
ababag2177
(g2193
g2179
Ntp2340
Rp2341
(lp2342
g2177
(g2197
g2179
Ntp2343
Rp2344
(lp2345
F51.94097810096994
aF11.50275800767979
aI0
abag2177
(g2201
g2179
Ntp2346
Rp2347
(lp2348
F0.0
aF0.0
aF0.07285948253197241
aF0.9973422159946771
ababag2177
(g2193
g2179
Ntp2349
Rp2350
(lp2351
g2177
(g2197
g2179
Ntp2352
Rp2353
(lp2354
F51.95651929266009
aF11.505040872300674
aI0
abag2177
(g2201
g2179
Ntp2355
Rp2356
(lp2357
F0.0
aF0.0
aF0.09894189104036721
aF0.9950932128184555
ababag2177
(g2193
g2179
Ntp2358
Rp2359
(lp2360
g2177
(g2197
g2179
Ntp2361
Rp2362
(lp2363
F51.97191970978425
aF11.508133971463193
aI0
abag2177
(g2201
g2179
Ntp2364
Rp2365
(lp2366
F0.0
aF0.0
aF0.12495648971890069
aF0.9921622224601833
ababag2177
(g2193
g2179
Ntp2367
Rp2368
(lp2369
g2177
(g2197
g2179
Ntp2370
Rp2371
(lp2372
F51.98713714086955
aF11.512028827197543
aI0
abag2177
(g2201
g2179
Ntp2373
Rp2374
(lp2375
F0.0
aF0.0
aF0.15088544946109672
aF0.9885512536742457
ababag2177
(g2193
g2179
Ntp2376
Rp2377
(lp2378
g2177
(g2197
g2179
Ntp2379
Rp2380
(lp2381
F52.000348308016505
aF11.516157939963623
aI0
abag2177
(g2201
g2179
Ntp2382
Rp2383
(lp2384
F0.0
aF0.0
aF0.1736481776669965
aF0.9848077530121964
ababag2177
(g2193
g2179
Ntp2385
Rp2386
(lp2387
g2177
(g2197
g2179
Ntp2388
Rp2389
(lp2390
F51.9999988377
aF11.5199997425
aI0
abag2177
(g2201
g2179
Ntp2391
Rp2392
(lp2393
F0.0
aF0.0
aF0.1736481776669964
aF0.9848077530121964
ababag2177
(g2193
g2179
Ntp2394
Rp2395
(lp2396
g2177
(g2197
g2179
Ntp2397
Rp2398
(lp2399
F52.01475949487047
aF11.52537218234826
aI0
abag2177
(g2201
g2179
Ntp2400
Rp2401
(lp2402
F0.0
aF0.0
aF0.1993679344172629
aF0.9799247046208163
ababag2177
(g2193
g2179
Ntp2403
Rp2404
(lp2405
g2177
(g2197
g2179
Ntp2406
Rp2407
(lp2408
F52.02921875129646
aF11.531509772562215
aI0
abag2177
(g2201
g2179
Ntp2409
Rp2410
(lp2411
F0.0
aF0.0
aF0.2249510543439303
aF0.9743700647852201
ababag2177
(g2193
g2179
Ntp2412
Rp2413
(lp2414
g2177
(g2197
g2179
Ntp2415
Rp2416
(lp2417
F52.04333697516118
aF11.53839569043371
aI0
abag2177
(g2201
g2179
Ntp2418
Rp2419
(lp2420
F0.0
aF0.0
aF0.25038000405450633
aF0.968147640378091
ababag2177
(g2193
g2179
Ntp2421
Rp2422
(lp2423
g2177
(g2197
g2179
Ntp2424
Rp2425
(lp2426
F52.05707546939435
aF11.546011062140488
aI0
abag2177
(g2201
g2179
Ntp2427
Rp2428
(lp2429
F0.0
aF0.0
aF0.27563735581706367
aF0.9612616959383004
ababag2177
(g2193
g2179
Ntp2430
Rp2431
(lp2432
g2177
(g2197
g2179
Ntp2433
Rp2434
(lp2435
F52.07039657773823
aF11.554335014478044
aI0
abag2177
(g2201
g2179
Ntp2436
Rp2437
(lp2438
F0.0
aF0.0
aF0.30070579950433707
aF0.9537169507482067
ababag2177
(g2193
g2179
Ntp2439
Rp2440
(lp2441
g2177
(g2197
g2179
Ntp2442
Rp2443
(lp2444
F52.08326378796078
aF11.56334473207161
aI0
abag2177
(g2201
g2179
Ntp2445
Rp2446
(lp2447
F0.0
aF0.0
aF0.3255681544572201
aF0.945518575599295
ababag2177
(g2193
g2179
Ntp2448
Rp2449
(lp2450
g2177
(g2197
g2179
Ntp2451
Rp2452
(lp2453
F52.095641831933186
aF11.573015519911518
aI0
abag2177
(g2201
g2179
Ntp2454
Rp2455
(lp2456
F0.0
aF0.0
aF0.3502073812595303
aF0.9366721892483741
ababag2177
(g2193
g2179
Ntp2457
Rp2458
(lp2459
g2177
(g2197
g2179
Ntp2460
Rp2461
(lp2462
F52.1074967822973
aF11.583320871040508
aI0
abag2177
(g2201
g2179
Ntp2463
Rp2464
(lp2465
F0.0
aF0.0
aF0.37460659341597424
aF0.9271838545667622
ababag2177
(g2193
g2179
Ntp2466
Rp2467
(lp2468
g2177
(g2197
g2179
Ntp2469
Rp2470
(lp2471
F52.118796145458184
aF11.594232539207454
aI0
abag2177
(g2201
g2179
Ntp2472
Rp2473
(lp2474
F0.0
aF0.0
aF0.3987490689253077
aF0.9170600743850973
ababag2177
(g2193
g2179
Ntp2475
Rp2476
(lp2477
g2177
(g2197
g2179
Ntp2478
Rp2479
(lp2480
F52.129508950646844
aF11.605720616288366
aI0
abag2177
(g2201
g2179
Ntp2481
Rp2482
(lp2483
F0.0
aF0.0
aF0.4226182617407602
aF0.9063077870366216
ababag2177
(g2193
g2179
Ntp2484
Rp2485
(lp2486
g2177
(g2197
g2179
Ntp2487
Rp2488
(lp2489
F52.1396058348089
aF11.617753614262497
aI0
abag2177
(g2201
g2179
Ntp2490
Rp2491
(lp2492
F0.0
aF0.0
aF0.4461978131098688
aF0.8949343616019951
ababag2177
(g2193
g2179
Ntp2493
Rp2494
(lp2495
g2177
(g2197
g2179
Ntp2496
Rp2497
(lp2498
F52.149059123086666
aF11.630298551518802
aI0
abag2177
(g2201
g2179
Ntp2499
Rp2500
(lp2501
F0.0
aF0.0
aF0.46947156278595
aF0.8829475928588955
ababag2177
(g2193
g2179
Ntp2502
Rp2503
(lp2504
g2177
(g2197
g2179
Ntp2505
Rp2506
(lp2507
F52.15784290467408
aF11.643321043256247
aI0
abag2177
(g2201
g2179
Ntp2508
Rp2509
(lp2510
F0.0
aF0.0
aF0.49242356010352545
aF0.8703556959398667
ababag2177
(g2193
g2179
Ntp2511
Rp2512
(lp2513
g2177
(g2197
g2179
Ntp2514
Rp2515
(lp2516
F52.16593310383636
aF11.656785395730163
aI0
abag2177
(g2201
g2179
Ntp2517
Rp2518
(lp2519
F0.0
aF0.0
aF0.5150380749101117
aF0.8571673007020778
ababag2177
(g2193
g2179
Ntp2520
Rp2521
(lp2522
g2177
(g2197
g2179
Ntp2523
Rp2524
(lp2525
F52.173307545899945
aF11.670654704086317
aI0
abag2177
(g2201
g2179
Ntp2526
Rp2527
(lp2528
F0.0
aF0.0
aF0.5372996083468803
aF0.8433914458128497
ababag2177
(g2193
g2179
Ntp2529
Rp2530
(lp2531
g2177
(g2197
g2179
Ntp2532
Rp2533
(lp2534
F52.17994601803173
aF11.684890953514545
aI0
abag2177
(g2201
g2179
Ntp2535
Rp2536
(lp2537
F0.0
aF0.0
aF0.5591929034708024
aF0.8290375725550042
ababag2177
(g2193
g2179
Ntp2538
Rp2539
(lp2540
g2177
(g2197
g2179
Ntp2541
Rp2542
(lp2543
F52.18583032464104
aF11.699455123444716
aI0
abag2177
(g2201
g2179
Ntp2544
Rp2545
(lp2546
F0.0
aF0.0
aF0.5807029557109943
aF0.8141155183562804
ababag2177
(g2193
g2179
Ntp2547
Rp2548
(lp2549
g2177
(g2197
g2179
Ntp2550
Rp2551
(lp2552
F52.18583203457462
aF11.69946008945242
aI0
abag2177
(g2201
g2179
Ntp2553
Rp2554
(lp2555
F0.0
aF0.0
aF0.5807100821201042
aF0.8141104350910028
ababag2177
(g2193
g2179
Ntp2556
Rp2557
(lp2558
g2177
(g2197
g2179
Ntp2559
Rp2560
(lp2561
F52.283497514889056
aF11.983117372022338
aI0
abag2177
(g2201
g2179
Ntp2562
Rp2563
(lp2564
F0.0
aF0.0
aF0.5807100821201042
aF0.8141104350910028
ababag2177
(g2193
g2179
Ntp2565
Rp2566
(lp2567
g2177
(g2197
g2179
Ntp2568
Rp2569
(lp2570
F52.38116299520349
aF12.266774654592256
aI0
abag2177
(g2201
g2179
Ntp2571
Rp2572
(lp2573
F0.0
aF0.0
aF0.5807100821201042
aF0.8141104350910028
ababag2177
(g2193
g2179
Ntp2574
Rp2575
(lp2576
g2177
(g2197
g2179
Ntp2577
Rp2578
(lp2579
F52.442692455385156
aF12.445479345512064
aI0
abag2177
(g2201
g2179
Ntp2580
Rp2581
(lp2582
F0.0
aF0.0
aF0.5807100821201042
aF0.8141104350910028
ababag2177
(g2193
g2179
Ntp2583
Rp2584
(lp2585
g2177
(g2197
g2179
Ntp2586
Rp2587
(lp2588
F52.44780620797624
aF12.460331606096378
aI0
abag2177
(g2201
g2179
Ntp2589
Rp2590
(lp2591
F0.0
aF0.0
aF0.6018220140547967
aF0.7986302419762402
ababag2177
(g2193
g2179
Ntp2592
Rp2593
(lp2594
g2177
(g2197
g2179
Ntp2595
Rp2596
(lp2597
F52.45213564508708
aF12.475431145305592
aI0
abag2177
(g2201
g2179
Ntp2598
Rp2599
(lp2600
F0.0
aF0.0
aF0.6225214872427367
aF0.7826027075860977
ababag2177
(g2193
g2179
Ntp2601
Rp2602
(lp2603
g2177
(g2197
g2179
Ntp2604
Rp2605
(lp2606
F52.45566890003148
aF12.490736576352285
aI0
abag2177
(g2201
g2179
Ntp2607
Rp2608
(lp2609
F0.0
aF0.0
aF0.6427943152989626
aF0.7660388163920533
ababag2177
(g2193
g2179
Ntp2610
Rp2611
(lp2612
g2177
(g2197
g2179
Ntp2613
Rp2614
(lp2615
F52.45839628840324
aF12.506205948113829
aI0
abag2177
(g2201
g2179
Ntp2616
Rp2617
(lp2618
F0.0
aF0.0
aF0.6626266042397749
aF0.7489499204577464
ababag2177
(g2193
g2179
Ntp2619
Rp2620
(lp2621
g2177
(g2197
g2179
Ntp2622
Rp2623
(lp2624
F52.46031033462041
aF12.521796860117487
aI0
abag2177
(g2201
g2179
Ntp2625
Rp2626
(lp2627
F0.0
aF0.0
aF0.6820047620049788
aF0.731347731658841
ababag2177
(g2193
g2179
Ntp2628
Rp2629
(lp2630
g2177
(g2197
g2179
Ntp2631
Rp2632
(lp2633
F52.46140579241535
aF12.537466578757167
aI0
abag2177
(g2201
g2179
Ntp2634
Rp2635
(lp2636
F0.0
aF0.0
aF0.7009155077732026
aF0.713244313656291
ababag2177
(g2193
g2179
Ntp2637
Rp2638
(lp2639
g2177
(g2197
g2179
Ntp2640
Rp2641
(lp2642
F52.46167965921438
aF12.553172154423267
aI0
abag2177
(g2201
g2179
Ntp2643
Rp2644
(lp2645
F0.0
aF0.0
aF0.7193458810639093
aF0.6946520736285094
ababag2177
(g2193
g2179
Ntp2646
Rp2647
(lp2648
g2177
(g2197
g2179
Ntp2649
Rp2650
(lp2651
F52.46113118436765
aF12.56887053922457
aI0
abag2177
(g2201
g2179
Ntp2652
Rp2653
(lp2654
F0.0
aF0.0
aF0.7372832506198633
aF0.6755837537681081
ababag2177
(g2193
g2179
Ntp2655
Rp2656
(lp2657
g2177
(g2197
g2179
Ntp2658
Rp2659
(lp2660
F52.459761871206595
aF12.584518704979512
aI0
abag2177
(g2201
g2179
Ntp2661
Rp2662
(lp2663
F0.0
aF0.0
aF0.7547153230639627
aF0.6560524225490356
ababag2177
(g2193
g2179
Ntp2664
Rp2665
(lp2666
g2177
(g2197
g2179
Ntp2667
Rp2668
(lp2669
F52.4575754729234
aF12.600073761153455
aI0
abag2177
(g2201
g2179
Ntp2670
Rp2671
(lp2672
F0.0
aF0.0
aF0.7716301513245055
aF0.6360714657700978
ababag2177
(g2193
g2179
Ntp2673
Rp2674
(lp2675
g2177
(g2197
g2179
Ntp2676
Rp2677
(lp2678
F52.454577982283794
aF12.61549307241864
aI0
abag2177
(g2201
g2179
Ntp2679
Rp2680
(lp2681
F0.0
aF0.0
aF0.7880161428231166
aF0.6156545773809997
ababag2177
(g2193
g2179
Ntp2682
Rp2683
(lp2684
g2177
(g2197
g2179
Ntp2685
Rp2686
(lp2687
F52.45077761520126
aF12.630734375514676
aI0
abag2177
(g2201
g2179
Ntp2688
Rp2689
(lp2690
F0.0
aF0.0
aF0.8038620674197214
aF0.5948157500971971
ababag2177
(g2193
g2179
Ntp2691
Rp2692
(lp2693
g2177
(g2197
g2179
Ntp2694
Rp2695
(lp2696
F52.44618478821781
aF12.645755895089184
aI0
abag2177
(g2201
g2179
Ntp2697
Rp2698
(lp2699
F0.0
aF0.0
aF0.8191570651091229
aF0.5735692658099875
ababag2177
(g2193
g2179
Ntp2700
Rp2701
(lp2702
g2177
(g2197
g2179
Ntp2703
Rp2704
(lp2705
F52.44081208995297
aF12.660516458201146
aI0
abag2177
(g2201
g2179
Ntp2706
Rp2707
(lp2708
F0.0
aF0.0
aF0.8338906534639071
aF0.5519296857984158
ababag2177
(g2193
g2179
Ntp2709
Rp2710
(lp2711
g2177
(g2197
g2179
Ntp2712
Rp2713
(lp2714
F52.43467424659923
aF12.674975607173064
aI0
abag2177
(g2201
g2179
Ntp2715
Rp2716
(lp2717
F0.0
aF0.0
aF0.8480527348185746
aF0.5299118407497009
ababag2177
(g2193
g2179
Ntp2718
Rp2719
(lp2720
g2177
(g2197
g2179
Ntp2721
Rp2722
(lp2723
F52.427788081558575
aF12.68909371048265
aI0
abag2177
(g2201
g2179
Ntp2724
Rp2725
(lp2726
F0.0
aF0.0
aF0.8616336031899767
aF0.5075308205950233
ababag2177
(g2193
g2179
Ntp2727
Rp2728
(lp2729
g2177
(g2197
g2179
Ntp2730
Rp2731
(lp2732
F52.420172469330744
aF12.70283207139007
aI0
abag2177
(g2201
g2179
Ntp2733
Rp2734
(lp2735
F0.0
aF0.0
aF0.8746239509293113
aF0.4848019641676399
ababag2177
(g2193
g2179
Ntp2736
Rp2737
(lp2738
g2177
(g2197
g2179
Ntp2739
Rp2740
(lp2741
F52.411851067074714
aF12.716148579973083
aI0
abag2177
(g2201
g2179
Ntp2742
Rp2743
(lp2744
F0.0
aF0.0
aF0.8870108331775498
aF0.4617486132363247
ababag2177
(g2193
g2179
Ntp2745
Rp2746
(lp2747
g2177
(g2197
g2179
Ntp2748
Rp2749
(lp2750
F52.3999988288
aF12.7199997157
aI0
abag2177
(g2201
g2179
Ntp2751
Rp2752
(lp2753
F0.0
aF0.0
aF0.8870108331775495
aF0.4617486132363253
ababag2177
(g2193
g2179
Ntp2754
Rp2755
(lp2756
g2177
(g2197
g2179
Ntp2757
Rp2758
(lp2759
F52.39098911120647
aF12.732866925922583
aI0
abag2177
(g2201
g2179
Ntp2760
Rp2761
(lp2762
F0.0
aF0.0
aF0.8987940462985288
aF0.438371146790386
ababag2177
(g2193
g2179
Ntp2763
Rp2764
(lp2765
g2177
(g2197
g2179
Ntp2766
Rp2767
(lp2768
F52.38131832336661
aF12.745244969895015
aI0
abag2177
(g2201
g2179
Ntp2769
Rp2770
(lp2771
F0.0
aF0.0
aF0.9099612708759395
aF0.4146932426575638
ababag2177
(g2193
g2179
Ntp2772
Rp2773
(lp2774
g2177
(g2197
g2179
Ntp2775
Rp2776
(lp2777
F52.37101297223765
aF12.757099920259153
aI0
abag2177
(g2201
g2179
Ntp2778
Rp2779
(lp2780
F0.0
aF0.0
aF0.9205048534518715
aF0.3907311284906139
ababag2177
(g2193
g2179
Ntp2781
Rp2782
(lp2783
g2177
(g2197
g2179
Ntp2784
Rp2785
(lp2786
F52.36010130407074
aF12.768399283420077
aI0
abag2177
(g2201
g2179
Ntp2787
Rp2788
(lp2789
F0.0
aF0.0
aF0.9304175679814909
aF0.36650122672565194
ababag2177
(g2193
g2179
Ntp2790
Rp2791
(lp2792
g2177
(g2197
g2179
Ntp2793
Rp2794
(lp2795
F52.34861322698986
aF12.779112088608775
aI0
abag2177
(g2201
g2179
Ntp2796
Rp2797
(lp2798
F0.0
aF0.0
aF0.9396926207854105
aF0.3420201433270368
ababag2177
(g2193
g2179
Ntp2799
Rp2800
(lp2801
g2177
(g2197
g2179
Ntp2802
Rp2803
(lp2804
F52.33658022901576
aF12.789208972770858
aI0
abag2177
(g2201
g2179
Ntp2805
Rp2806
(lp2807
F0.0
aF0.0
aF0.9483236552057374
aF0.3173046564064728
ababag2177
(g2193
g2179
Ntp2808
Rp2809
(lp2810
g2177
(g2197
g2179
Ntp2811
Rp2812
(lp2813
F52.324035291759486
aF12.798662261048667
aI0
abag2177
(g2201
g2179
Ntp2814
Rp2815
(lp2816
F0.0
aF0.0
aF0.9563047559626098
aF0.2923717047241291
ababag2177
(g2193
g2179
Ntp2817
Rp2818
(lp2819
g2177
(g2197
g2179
Ntp2820
Rp2821
(lp2822
F52.31101280002206
aF12.807446042636121
aI0
abag2177
(g2201
g2179
Ntp2823
Rp2824
(lp2825
F0.0
aF0.0
aF0.9636304532082339
aF0.2672383760796598
ababag2177
(g2193
g2179
Ntp2826
Rp2827
(lp2828
g2177
(g2197
g2179
Ntp2829
Rp2830
(lp2831
F52.297548447548174
aF12.815536241798442
aI0
abag2177
(g2201
g2179
Ntp2832
Rp2833
(lp2834
F0.0
aF0.0
aF0.9702957262756443
aF0.24192189560108038
ababag2177
(g2193
g2179
Ntp2835
Rp2836
(lp2837
g2177
(g2197
g2179
Ntp2838
Rp2839
(lp2840
F52.283679139192046
aF12.822910683862071
aI0
abag2177
(g2201
g2179
Ntp2841
Rp2842
(lp2843
F0.0
aF0.0
aF0.9762960071196183
aF0.21643961393952435
ababag2177
(g2193
g2179
Ntp2844
Rp2845
(lp2846
g2177
(g2197
g2179
Ntp2847
Rp2848
(lp2849
F52.26944288976383
aF12.829549155993899
aI0
abag2177
(g2201
g2179
Ntp2850
Rp2851
(lp2852
F0.0
aF0.0
aF0.9816271834473862
aF0.19080899537797388
ababag2177
(g2193
g2179
Ntp2853
Rp2854
(lp2855
g2177
(g2197
g2179
Ntp2856
Rp2857
(lp2858
F52.263449514362776
aF12.831970636837223
aI0
abag2177
(g2201
g2179
Ntp2859
Rp2860
(lp2861
F0.0
aF0.0
aF0.9836258461087417
aF0.18022262584609627
ababag2177
(g2193
g2179
Ntp2862
Rp2863
(lp2864
g2177
(g2197
g2179
Ntp2865
Rp2866
(lp2867
F51.98293763128289
aF12.938333616538706
aI0
abag2177
(g2201
g2179
Ntp2868
Rp2869
(lp2870
F0.0
aF0.0
aF0.9836258461087417
aF0.18022262584609627
ababag2177
(g2193
g2179
Ntp2871
Rp2872
(lp2873
g2177
(g2197
g2179
Ntp2874
Rp2875
(lp2876
F51.702425748203005
aF13.04469659624019
aI0
abag2177
(g2201
g2179
Ntp2877
Rp2878
(lp2879
F0.0
aF0.0
aF0.9836258461087417
aF0.18022262584609627
ababag2177
(g2193
g2179
Ntp2880
Rp2881
(lp2882
g2177
(g2197
g2179
Ntp2883
Rp2884
(lp2885
F51.42191386512312
aF13.151059575941673
aI0
abag2177
(g2201
g2179
Ntp2886
Rp2887
(lp2888
F0.0
aF0.0
aF0.9836258461087417
aF0.18022262584609627
ababag2177
(g2193
g2179
Ntp2889
Rp2890
(lp2891
g2177
(g2197
g2179
Ntp2892
Rp2893
(lp2894
F51.14140198204324
aF13.257422555643156
aI0
abag2177
(g2201
g2179
Ntp2895
Rp2896
(lp2897
F0.0
aF0.0
aF0.9836258461087417
aF0.18022262584609627
ababag2177
(g2193
g2179
Ntp2898
Rp2899
(lp2900
g2177
(g2197
g2179
Ntp2901
Rp2902
(lp2903
F50.86089009896336
aF13.363785535344642
aI0
abag2177
(g2201
g2179
Ntp2904
Rp2905
(lp2906
F0.0
aF0.0
aF0.9836258461087417
aF0.18022262584609627
ababag2177
(g2193
g2179
Ntp2907
Rp2908
(lp2909
g2177
(g2197
g2179
Ntp2910
Rp2911
(lp2912
F50.58037821588348
aF13.470148515046123
aI0
abag2177
(g2201
g2179
Ntp2913
Rp2914
(lp2915
F0.0
aF0.0
aF0.9836258461087417
aF0.18022262584609627
ababag2177
(g2193
g2179
Ntp2916
Rp2917
(lp2918
g2177
(g2197
g2179
Ntp2919
Rp2920
(lp2921
F50.299866332803596
aF13.576511494747606
aI0
abag2177
(g2201
g2179
Ntp2922
Rp2923
(lp2924
F0.0
aF0.0
aF0.9836258461087417
aF0.18022262584609627
ababag2177
(g2193
g2179
Ntp2925
Rp2926
(lp2927
g2177
(g2197
g2179
Ntp2928
Rp2929
(lp2930
F50.01935444972371
aF13.68287447444909
aI0
abag2177
(g2201
g2179
Ntp2931
Rp2932
(lp2933
F0.0
aF0.0
aF0.9836258461087417
aF0.18022262584609627
ababag2177
(g2193
g2179
Ntp2934
Rp2935
(lp2936
g2177
(g2197
g2179
Ntp2937
Rp2938
(lp2939
F49.738842566643825
aF13.789237454150573
aI0
abag2177
(g2201
g2179
Ntp2940
Rp2941
(lp2942
F0.0
aF0.0
aF0.9836258461087417
aF0.18022262584609627
ababag2177
(g2193
g2179
Ntp2943
Rp2944
(lp2945
g2177
(g2197
g2179
Ntp2946
Rp2947
(lp2948
F49.45833068356394
aF13.895600433852056
aI0
abag2177
(g2201
g2179
Ntp2949
Rp2950
(lp2951
F0.0
aF0.0
aF0.9836258461087417
aF0.18022262584609627
ababag2177
(g2193
g2179
Ntp2952
Rp2953
(lp2954
g2177
(g2197
g2179
Ntp2955
Rp2956
(lp2957
F49.17781880048406
aF14.00196341355354
aI0
abag2177
(g2201
g2179
Ntp2958
Rp2959
(lp2960
F0.0
aF0.0
aF0.9836258461087417
aF0.18022262584609627
ababag2177
(g2193
g2179
Ntp2961
Rp2962
(lp2963
g2177
(g2197
g2179
Ntp2964
Rp2965
(lp2966
F48.89730691740418
aF14.108326393255023
aI0
abag2177
(g2201
g2179
Ntp2967
Rp2968
(lp2969
F0.0
aF0.0
aF0.9836258461087417
aF0.18022262584609627
ababag2177
(g2193
g2179
Ntp2970
Rp2971
(lp2972
g2177
(g2197
g2179
Ntp2973
Rp2974
(lp2975
F48.6167950343243
aF14.214689372956506
aI0
abag2177
(g2201
g2179
Ntp2976
Rp2977
(lp2978
F0.0
aF0.0
aF0.9836258461087417
aF0.18022262584609627
ababag2177
(g2193
g2179
Ntp2979
Rp2980
(lp2981
g2177
(g2197
g2179
Ntp2982
Rp2983
(lp2984
F48.336283151244416
aF14.32105235265799
aI0
abag2177
(g2201
g2179
Ntp2985
Rp2986
(lp2987
F0.0
aF0.0
aF0.9836258461087417
aF0.18022262584609627
ababag2177
(g2193
g2179
Ntp2988
Rp2989
(lp2990
g2177
(g2197
g2179
Ntp2991
Rp2992
(lp2993
F48.055771268164534
aF14.427415332359473
aI0
abag2177
(g2201
g2179
Ntp2994
Rp2995
(lp2996
F0.0
aF0.0
aF0.9836258461087417
aF0.18022262584609627
ababag2177
(g2193
g2179
Ntp2997
Rp2998
(lp2999
g2177
(g2197
g2179
Ntp3000
Rp3001
(lp3002
F47.775259385084645
aF14.533778312060956
aI0
abag2177
(g2201
g2179
Ntp3003
Rp3004
(lp3005
F0.0
aF0.0
aF0.9836258461087417
aF0.18022262584609627
ababag2177
(g2193
g2179
Ntp3006
Rp3007
(lp3008
g2177
(g2197
g2179
Ntp3009
Rp3010
(lp3011
F47.49474750200476
aF14.64014129176244
aI0
abag2177
(g2201
g2179
Ntp3012
Rp3013
(lp3014
F0.0
aF0.0
aF0.9836258461087417
aF0.18022262584609627
ababag2177
(g2193
g2179
Ntp3015
Rp3016
(lp3017
g2177
(g2197
g2179
Ntp3018
Rp3019
(lp3020
F47.21423561892488
aF14.746504271463923
aI0
abag2177
(g2201
g2179
Ntp3021
Rp3022
(lp3023
F0.0
aF0.0
aF0.9836258461087417
aF0.18022262584609627
ababag2177
(g2193
g2179
Ntp3024
Rp3025
(lp3026
g2177
(g2197
g2179
Ntp3027
Rp3028
(lp3029
F46.933723735845
aF14.852867251165407
aI0
abag2177
(g2201
g2179
Ntp3030
Rp3031
(lp3032
F0.0
aF0.0
aF0.9836258461087417
aF0.18022262584609627
ababag2177
(g2193
g2179
Ntp3033
Rp3034
(lp3035
g2177
(g2197
g2179
Ntp3036
Rp3037
(lp3038
F46.65321185276512
aF14.95923023086689
aI0
abag2177
(g2201
g2179
Ntp3039
Rp3040
(lp3041
F0.0
aF0.0
aF0.9836258461087417
aF0.18022262584609627
ababag2177
(g2193
g2179
Ntp3042
Rp3043
(lp3044
g2177
(g2197
g2179
Ntp3045
Rp3046
(lp3047
F46.37269996968523
aF15.065593210568373
aI0
abag2177
(g2201
g2179
Ntp3048
Rp3049
(lp3050
F0.0
aF0.0
aF0.9836258461087417
aF0.18022262584609627
ababag2177
(g2193
g2179
Ntp3051
Rp3052
(lp3053
g2177
(g2197
g2179
Ntp3054
Rp3055
(lp3056
F46.09218808660535
aF15.171956190269857
aI0
abag2177
(g2201
g2179
Ntp3057
Rp3058
(lp3059
F0.0
aF0.0
aF0.9836258461087417
aF0.18022262584609627
ababag2177
(g2193
g2179
Ntp3060
Rp3061
(lp3062
g2177
(g2197
g2179
Ntp3063
Rp3064
(lp3065
F45.811676203525465
aF15.27831916997134
aI0
abag2177
(g2201
g2179
Ntp3066
Rp3067
(lp3068
F0.0
aF0.0
aF0.9836258461087417
aF0.18022262584609627
ababag2177
(g2193
g2179
Ntp3069
Rp3070
(lp3071
g2177
(g2197
g2179
Ntp3072
Rp3073
(lp3074
F45.53116432044558
aF15.384682149672823
aI0
abag2177
(g2201
g2179
Ntp3075
Rp3076
(lp3077
F0.0
aF0.0
aF0.9836258461087417
aF0.18022262584609627
ababag2177
(g2193
g2179
Ntp3078
Rp3079
(lp3080
g2177
(g2197
g2179
Ntp3081
Rp3082
(lp3083
F45.2506524373657
aF15.491045129374307
aI0
abag2177
(g2201
g2179
Ntp3084
Rp3085
(lp3086
F0.0
aF0.0
aF0.9836258461087417
aF0.18022262584609627
ababag2177
(g2193
g2179
Ntp3087
Rp3088
(lp3089
g2177
(g2197
g2179
Ntp3090
Rp3091
(lp3092
F44.97014055428582
aF15.59740810907579
aI0
abag2177
(g2201
g2179
Ntp3093
Rp3094
(lp3095
F0.0
aF0.0
aF0.9836258461087417
aF0.18022262584609627
ababag2177
(g2193
g2179
Ntp3096
Rp3097
(lp3098
g2177
(g2197
g2179
Ntp3099
Rp3100
(lp3101
F44.68962867120594
aF15.703771088777273
aI0
abag2177
(g2201
g2179
Ntp3102
Rp3103
(lp3104
F0.0
aF0.0
aF0.9836258461087417
aF0.18022262584609627
ababag2177
(g2193
g2179
Ntp3105
Rp3106
(lp3107
g2177
(g2197
g2179
Ntp3108
Rp3109
(lp3110
F44.409116788126056
aF15.810134068478757
aI0
abag2177
(g2201
g2179
Ntp3111
Rp3112
(lp3113
F0.0
aF0.0
aF0.9836258461087417
aF0.18022262584609627
ababag2177
(g2193
g2179
Ntp3114
Rp3115
(lp3116
g2177
(g2197
g2179
Ntp3117
Rp3118
(lp3119
F44.128604905046174
aF15.91649704818024
aI0
abag2177
(g2201
g2179
Ntp3120
Rp3121
(lp3122
F0.0
aF0.0
aF0.9836258461087417
aF0.18022262584609627
ababag2177
(g2193
g2179
Ntp3123
Rp3124
(lp3125
g2177
(g2197
g2179
Ntp3126
Rp3127
(lp3128
F43.848093021966285
aF16.022860027881723
aI0
abag2177
(g2201
g2179
Ntp3129
Rp3130
(lp3131
F0.0
aF0.0
aF0.9836258461087417
aF0.18022262584609627
ababag2177
(g2193
g2179
Ntp3132
Rp3133
(lp3134
g2177
(g2197
g2179
Ntp3135
Rp3136
(lp3137
F43.5675811388864
aF16.129223007583207
aI0
abag2177
(g2201
g2179
Ntp3138
Rp3139
(lp3140
F0.0
aF0.0
aF0.9836258461087417
aF0.18022262584609627
ababag2177
(g2193
g2179
Ntp3141
Rp3142
(lp3143
g2177
(g2197
g2179
Ntp3144
Rp3145
(lp3146
F43.28706925580652
aF16.23558598728469
aI0
abag2177
(g2201
g2179
Ntp3147
Rp3148
(lp3149
F0.0
aF0.0
aF0.9836258461087417
aF0.18022262584609627
ababag2177
(g2193
g2179
Ntp3150
Rp3151
(lp3152
g2177
(g2197
g2179
Ntp3153
Rp3154
(lp3155
F43.00655737272664
aF16.341948966986173
aI0
abag2177
(g2201
g2179
Ntp3156
Rp3157
(lp3158
F0.0
aF0.0
aF0.9836258461087417
aF0.18022262584609627
ababag2177
(g2193
g2179
Ntp3159
Rp3160
(lp3161
g2177
(g2197
g2179
Ntp3162
Rp3163
(lp3164
F42.72604548964676
aF16.448311946687653
aI0
abag2177
(g2201
g2179
Ntp3165
Rp3166
(lp3167
F0.0
aF0.0
aF0.9836258461087417
aF0.18022262584609627
ababag2177
(g2193
g2179
Ntp3168
Rp3169
(lp3170
g2177
(g2197
g2179
Ntp3171
Rp3172
(lp3173
F42.445533606566876
aF16.554674926389136
aI0
abag2177
(g2201
g2179
Ntp3174
Rp3175
(lp3176
F0.0
aF0.0
aF0.9836258461087417
aF0.18022262584609627
ababag2177
(g2193
g2179
Ntp3177
Rp3178
(lp3179
g2177
(g2197
g2179
Ntp3180
Rp3181
(lp3182
F42.165021723486994
aF16.66103790609062
aI0
abag2177
(g2201
g2179
Ntp3183
Rp3184
(lp3185
F0.0
aF0.0
aF0.9836258461087417
aF0.18022262584609627
ababag2177
(g2193
g2179
Ntp3186
Rp3187
(lp3188
g2177
(g2197
g2179
Ntp3189
Rp3190
(lp3191
F41.88450984040711
aF16.767400885792103
aI0
abag2177
(g2201
g2179
Ntp3192
Rp3193
(lp3194
F0.0
aF0.0
aF0.9836258461087417
aF0.18022262584609627
ababag2177
(g2193
g2179
Ntp3195
Rp3196
(lp3197
g2177
(g2197
g2179
Ntp3198
Rp3199
(lp3200
F41.60399795732722
aF16.873763865493586
aI0
abag2177
(g2201
g2179
Ntp3201
Rp3202
(lp3203
F0.0
aF0.0
aF0.9836258461087417
aF0.18022262584609627
ababag2177
(g2193
g2179
Ntp3204
Rp3205
(lp3206
g2177
(g2197
g2179
Ntp3207
Rp3208
(lp3209
F41.32348607424734
aF16.980126845195066
aI0
abag2177
(g2201
g2179
Ntp3210
Rp3211
(lp3212
F0.0
aF0.0
aF0.9836258461087417
aF0.18022262584609627
ababag2177
(g2193
g2179
Ntp3213
Rp3214
(lp3215
g2177
(g2197
g2179
Ntp3216
Rp3217
(lp3218
F41.04297419116746
aF17.08648982489655
aI0
abag2177
(g2201
g2179
Ntp3219
Rp3220
(lp3221
F0.0
aF0.0
aF0.9836258461087417
aF0.18022262584609627
ababag2177
(g2193
g2179
Ntp3222
Rp3223
(lp3224
g2177
(g2197
g2179
Ntp3225
Rp3226
(lp3227
F40.88237211062664
aF17.14738605376581
aI0
abag2177
(g2201
g2179
Ntp3228
Rp3229
(lp3230
F0.0
aF0.0
aF0.9836258461087417
aF0.18022262584609627
ababag2177
(g2193
g2179
Ntp3231
Rp3232
(lp3233
g2177
(g2197
g2179
Ntp3234
Rp3235
(lp3236
F40.8676845427745
aF17.152955206359877
aI0
abag2177
(g2201
g2179
Ntp3237
Rp3238
(lp3239
F0.0
aF0.0
aF0.9880064604585663
aF0.15441254512550287
ababag2177
(g2193
g2179
Ntp3240
Rp3241
(lp3242
g2177
(g2197
g2179
Ntp3243
Rp3244
(lp3245
F40.87416745941777
aF17.150878080352577
aI0
abag2177
(g2201
g2179
Ntp3246
Rp3247
(lp3248
F0.0
aF0.0
aF0.9861909554577538
aF0.16561219572640956
ababag2177
(g2193
g2179
Ntp3249
Rp3250
(lp3251
g2177
(g2197
g2179
Ntp3252
Rp3253
(lp3254
F40.8711709615
aF17.1468857621
aI0
abag2177
(g2201
g2179
Ntp3255
Rp3256
(lp3257
F0.0
aF0.0
aF0.9861909554577538
aF0.16561219572640956
ababag2177
(g2193
g2179
Ntp3258
Rp3259
(lp3260
g2177
(g2197
g2179
Ntp3261
Rp3262
(lp3263
F40.85632465539583
aF17.152016776140968
aI0
abag2177
(g2201
g2179
Ntp3264
Rp3265
(lp3266
F0.0
aF0.0
aF0.9901882343346707
aF0.13973997490048143
ababag2177
(g2193
g2179
Ntp3267
Rp3268
(lp3269
g2177
(g2197
g2179
Ntp3270
Rp3271
(lp3272
F40.84123015911187
aF17.156363762678886
aI0
abag2177
(g2201
g2179
Ntp3273
Rp3274
(lp3275
F0.0
aF0.0
aF0.9935068876567806
aF0.11377198327592376
ababag2177
(g2193
g2179
Ntp3276
Rp3277
(lp3278
g2177
(g2197
g2179
Ntp3279
Rp3280
(lp3281
F40.825928845613234
aF17.159914806925805
aI0
abag2177
(g2201
g2179
Ntp3282
Rp3283
(lp3284
F0.0
aF0.0
aF0.9961446409848669
aF0.08772601801706638
ababag2177
(g2193
g2179
Ntp3285
Rp3286
(lp3287
g2177
(g2197
g2179
Ntp3288
Rp3289
(lp3290
F40.81046265473663
aF17.162660175716272
aI0
abag2177
(g2201
g2179
Ntp3291
Rp3292
(lp3293
F0.0
aF0.0
aF0.9980996865345572
aF0.061619929727472475
ababag2177
(g2193
g2179
Ntp3294
Rp3295
(lp3296
g2177
(g2197
g2179
Ntp3297
Rp3298
(lp3299
F40.79487397823621
aF17.164592344185262
aI0
abag2177
(g2201
g2179
Ntp3300
Rp3301
(lp3302
F0.0
aF0.0
aF0.9993706844152885
aF0.03547161021602731
ababag2177
(g2193
g2179
Ntp3303
Rp3304
(lp3305
g2177
(g2197
g2179
Ntp3306
Rp3307
(lp3308
F40.77920554359071
aF17.165706016393308
aI0
abag2177
(g2201
g2179
Ntp3309
Rp3310
(lp3311
F0.0
aF0.0
aF0.9999567635486012
aF0.009298980234786761
ababag2177
(g2193
g2179
Ntp3312
Rp3313
(lp3314
g2177
(g2197
g2179
Ntp3315
Rp3316
(lp3317
F40.7635002968904
aF17.165998139842298
aI0
abag2177
(g2201
g2179
Ntp3318
Rp3319
(lp3320
F0.0
aF0.0
aF-0.9998575222651325
aF0.016880022803012627
ababag2177
(g2193
g2179
Ntp3321
Rp3322
(lp3323
g2177
(g2197
g2179
Ntp3324
Rp3325
(lp3326
F40.747801285124815
aF17.165467913842157
aI0
abag2177
(g2201
g2179
Ntp3327
Rp3328
(lp3329
F0.0
aF0.0
aF-0.9990730285799008
aF0.043047457116358434
ababag2177
(g2193
g2179
Ntp3330
Rp3331
(lp3332
g2177
(g2197
g2179
Ntp3333
Rp3334
(lp3335
F40.73215153819398
aF17.164116791705503
aI0
abag2177
(g2201
g2179
Ntp3336
Rp3337
(lp3338
F0.0
aF0.0
aF-0.9976038201456918
aF0.06918538885286515
ababag2177
(g2193
g2179
Ntp3339
Rp3340
(lp3341
g2177
(g2197
g2179
Ntp3342
Rp3343
(lp3344
F40.71659395096644
aF17.16194847676419
aI0
abag2177
(g2201
g2179
Ntp3345
Rp3346
(lp3347
F0.0
aF0.0
aF-0.9954509038845777
aF0.09527590437973962
ababag2177
(g2193
g2179
Ntp3348
Rp3349
(lp3350
g2177
(g2197
g2179
Ntp3351
Rp3352
(lp3353
F40.701171165707386
aF17.158968912218764
aI0
abag2177
(g2201
g2179
Ntp3354
Rp3355
(lp3356
F0.0
aF0.0
aF-0.9926157552978232
aF0.12130112256088962
ababag2177
(g2193
g2179
Ntp3357
Rp3358
(lp3359
g2177
(g2197
g2179
Ntp3360
Rp3361
(lp3362
F40.68592545519919
aF17.15518626484853
aI0
abag2177
(g2201
g2179
Ntp3363
Rp3364
(lp3365
F0.0
aF0.0
aF-0.9891003174546509
aF0.14724320701176266
ababag2177
(g2193
g2179
Ntp3366
Rp3367
(lp3368
g2177
(g2197
g2179
Ntp3369
Rp3370
(lp3371
F40.679376522718
aF17.153192251358902
aI0
abag2177
(g2201
g2179
Ntp3372
Rp3373
(lp3374
F0.0
aF0.0
aF-0.9873559850714703
aF0.15851863847367184
ababag2177
(g2193
g2179
Ntp3375
Rp3376
(lp3377
g2177
(g2197
g2179
Ntp3378
Rp3379
(lp3380
F40.39445341796413
aF17.059283655493484
aI0
abag2177
(g2201
g2179
Ntp3381
Rp3382
(lp3383
F0.0
aF0.0
aF-0.9873559850714703
aF0.15851863847367184
ababag2177
(g2193
g2179
Ntp3384
Rp3385
(lp3386
g2177
(g2197
g2179
Ntp3387
Rp3388
(lp3389
F40.10953031321026
aF16.96537505962807
aI0
abag2177
(g2201
g2179
Ntp3390
Rp3391
(lp3392
F0.0
aF0.0
aF-0.9873559850714703
aF0.15851863847367184
ababag2177
(g2193
g2179
Ntp3393
Rp3394
(lp3395
g2177
(g2197
g2179
Ntp3396
Rp3397
(lp3398
F39.824607208456385
aF16.871466463762655
aI0
abag2177
(g2201
g2179
Ntp3399
Rp3400
(lp3401
F0.0
aF0.0
aF-0.9873559850714703
aF0.15851863847367184
ababag2177
(g2193
g2179
Ntp3402
Rp3403
(lp3404
g2177
(g2197
g2179
Ntp3405
Rp3406
(lp3407
F39.53968410370251
aF16.777557867897237
aI0
abag2177
(g2201
g2179
Ntp3408
Rp3409
(lp3410
F0.0
aF0.0
aF-0.9873559850714703
aF0.15851863847367184
ababag2177
(g2193
g2179
Ntp3411
Rp3412
(lp3413
g2177
(g2197
g2179
Ntp3414
Rp3415
(lp3416
F39.456199830241715
aF16.750042054799806
aI0
abag2177
(g2201
g2179
Ntp3417
Rp3418
(lp3419
F0.0
aF0.0
aF-0.9873559850714703
aF0.15851863847367184
ababag2177
(g2193
g2179
Ntp3420
Rp3421
(lp3422
g2177
(g2197
g2179
Ntp3423
Rp3424
(lp3425
F39.44128129136284
aF16.745125012218477
aI0
abag2177
(g2201
g2179
Ntp3426
Rp3427
(lp3428
F0.0
aF0.0
aF-0.9828681086299924
aF0.18431028467804322
ababag2177
(g2193
g2179
Ntp3429
Rp3430
(lp3431
g2177
(g2197
g2179
Ntp3432
Rp3433
(lp3434
F39.42664053594839
aF16.73943393227514
aI0
abag2177
(g2201
g2179
Ntp3435
Rp3436
(lp3437
F0.0
aF0.0
aF-0.9777066234822172
aF0.20997561381980043
ababag2177
(g2193
g2179
Ntp3438
Rp3439
(lp3440
g2177
(g2197
g2179
Ntp3441
Rp3442
(lp3443
F39.412317693291286
aF16.732984413824344
aI0
abag2177
(g2201
g2179
Ntp3444
Rp3445
(lp3446
F0.0
aF0.0
aF-0.9718750670522427
aF0.2354970361643617
ababag2177
(g2193
g2179
Ntp3447
Rp3448
(lp3449
g2177
(g2197
g2179
Ntp3450
Rp3451
(lp3452
F39.39947787006789
aF16.726373782059156
aI0
abag2177
(g2201
g2179
Ntp3453
Rp3454
(lp3455
F0.0
aF0.0
aF-0.9659258262888749
aF0.2588190451032423
ababag2177
(g2193
g2179
Ntp3456
Rp3457
(lp3458
g2177
(g2197
g2179
Ntp3459
Rp3460
(lp3461
F39.3999991193
aF16.7199996263
aI0
abag2177
(g2201
g2179
Ntp3462
Rp3463
(lp3464
F0.0
aF0.0
aF-0.9659258262888749
aF0.25881904510324244
ababag2177
(g2193
g2179
Ntp3465
Rp3466
(lp3467
g2177
(g2197
g2179
Ntp3468
Rp3469
(lp3470
F39.38639562406826
aF16.712145644666005
aI0
abag2177
(g2201
g2179
Ntp3471
Rp3472
(lp3473
F0.0
aF0.0
aF-0.9723699203975021
aF0.233445363856632
ababag2177
(g2193
g2179
Ntp3474
Rp3475
(lp3476
g2177
(g2197
g2179
Ntp3477
Rp3478
(lp3479
F39.37239972631481
aF16.70501437857208
aI0
abag2177
(g2201
g2179
Ntp3480
Rp3481
(lp3482
F0.0
aF0.0
aF-0.9781476007336503
aF0.2079116908184901
ababag2177
(g2193
g2179
Ntp3483
Rp3484
(lp3485
g2177
(g2197
g2179
Ntp3486
Rp3487
(lp3488
F39.371741794712364
aF16.704721448549698
aI0
abag2177
(g2201
g2179
Ntp3489
Rp3490
(lp3491
F0.0
aF0.0
aF-0.9783964579022176
aF0.20673744499822472
ababag2177
(g2193
g2179
Ntp3492
Rp3493
(lp3494
g2177
(g2197
g2179
Ntp3495
Rp3496
(lp3497
F39.097386017411004
aF16.58335873820849
aI0
abag2177
(g2201
g2179
Ntp3498
Rp3499
(lp3500
F0.0
aF0.0
aF-0.9783964579022176
aF0.20673744499822472
ababag2177
(g2193
g2179
Ntp3501
Rp3502
(lp3503
g2177
(g2197
g2179
Ntp3504
Rp3505
(lp3506
F38.82303024010964
aF16.461996027867276
aI0
abag2177
(g2201
g2179
Ntp3507
Rp3508
(lp3509
F0.0
aF0.0
aF-0.9783964579022176
aF0.20673744499822472
ababag2177
(g2193
g2179
Ntp3510
Rp3511
(lp3512
g2177
(g2197
g2179
Ntp3513
Rp3514
(lp3515
F38.54867446280827
aF16.340633317526066
aI0
abag2177
(g2201
g2179
Ntp3516
Rp3517
(lp3518
F0.0
aF0.0
aF-0.9783964579022176
aF0.20673744499822472
ababag2177
(g2193
g2179
Ntp3519
Rp3520
(lp3521
g2177
(g2197
g2179
Ntp3522
Rp3523
(lp3524
F38.27431868550691
aF16.219270607184857
aI0
abag2177
(g2201
g2179
Ntp3525
Rp3526
(lp3527
F0.0
aF0.0
aF-0.9783964579022176
aF0.20673744499822472
ababag2177
(g2193
g2179
Ntp3528
Rp3529
(lp3530
g2177
(g2197
g2179
Ntp3531
Rp3532
(lp3533
F37.999962908205546
aF16.097907896843644
aI0
abag2177
(g2201
g2179
Ntp3534
Rp3535
(lp3536
F0.0
aF0.0
aF-0.9783964579022176
aF0.20673744499822472
ababag2177
(g2193
g2179
Ntp3537
Rp3538
(lp3539
g2177
(g2197
g2179
Ntp3540
Rp3541
(lp3542
F37.72560713090418
aF15.976545186502435
aI0
abag2177
(g2201
g2179
Ntp3543
Rp3544
(lp3545
F0.0
aF0.0
aF-0.9783964579022176
aF0.20673744499822472
ababag2177
(g2193
g2179
Ntp3546
Rp3547
(lp3548
g2177
(g2197
g2179
Ntp3549
Rp3550
(lp3551
F37.62901641433073
aF15.93381777878221
aI0
abag2177
(g2201
g2179
Ntp3552
Rp3553
(lp3554
F0.0
aF0.0
aF-0.9783964579022176
aF0.20673744499822472
ababag2177
(g2193
g2179
Ntp3555
Rp3556
(lp3557
g2177
(g2197
g2179
Ntp3558
Rp3559
(lp3560
F37.61465117942339
aF15.927463242128415
aI0
abag2177
(g2201
g2179
Ntp3561
Rp3562
(lp3563
F0.0
aF0.0
aF-0.972649430461071
aF0.2322780347423194
ababag2177
(g2193
g2179
Ntp3564
Rp3565
(lp3566
g2177
(g2197
g2179
Ntp3567
Rp3568
(lp3569
F37.6006382023235
aF15.920365595840725
aI0
abag2177
(g2201
g2179
Ntp3570
Rp3571
(lp3572
F0.0
aF0.0
aF-0.9662357976852095
aF0.2576594327239482
ababag2177
(g2193
g2179
Ntp3573
Rp3574
(lp3575
g2177
(g2197
g2179
Ntp3576
Rp3577
(lp3578
F37.6000136317924
aF15.920006996282462
aI0
abag2177
(g2201
g2179
Ntp3579
Rp3580
(lp3581
F0.0
aF0.0
aF-0.9659258262888749
aF0.25881904510324244
ababag2177
(g2193
g2179
Ntp3582
Rp3583
(lp3584
g2177
(g2197
g2179
Ntp3585
Rp3586
(lp3587
F37.5999991596
aF15.9199996442
aI0
abag2177
(g2201
g2179
Ntp3588
Rp3589
(lp3590
F0.0
aF0.0
aF-0.9659258262888749
aF0.25881904510324244
ababag2177
(g2193
g2179
Ntp3591
Rp3592
(lp3593
g2177
(g2197
g2179
Ntp3594
Rp3595
(lp3596
F37.58639566436826
aF15.912145662566006
aI0
abag2177
(g2201
g2179
Ntp3597
Rp3598
(lp3599
F0.0
aF0.0
aF-0.9723699203975021
aF0.233445363856632
ababag2177
(g2193
g2179
Ntp3600
Rp3601
(lp3602
g2177
(g2197
g2179
Ntp3603
Rp3604
(lp3605
F37.572399766614815
aF15.905014396472078
aI0
abag2177
(g2201
g2179
Ntp3606
Rp3607
(lp3608
F0.0
aF0.0
aF-0.9781476007336503
aF0.2079116908184901
ababag2177
(g2193
g2179
Ntp3609
Rp3610
(lp3611
g2177
(g2197
g2179
Ntp3612
Rp3613
(lp3614
F37.55804982812257
aF15.898625392222893
aI0
abag2177
(g2201
g2179
Ntp3615
Rp3616
(lp3617
F0.0
aF0.0
aF-0.9832549075638184
aF0.1822355254928821
ababag2177
(g2193
g2179
Ntp3618
Rp3619
(lp3620
g2177
(g2197
g2179
Ntp3621
Rp3622
(lp3623
F37.543385181075486
aF15.892996161635004
aI0
abag2177
(g2201
g2179
Ntp3624
Rp3625
(lp3626
F0.0
aF0.0
aF-0.9876883405950209
aF0.15643446504096892
ababag2177
(g2193
g2179
Ntp3627
Rp3628
(lp3629
g2177
(g2197
g2179
Ntp3630
Rp3631
(lp3632
F37.528446020251785
aF15.888142134038167
aI0
abag2177
(g2201
g2179
Ntp3633
Rp3634
(lp3635
F0.0
aF0.0
aF-0.9914448613737129
aF0.1305261922207923
ababag2177
(g2193
g2179
Ntp3636
Rp3637
(lp3638
g2177
(g2197
g2179
Ntp3639
Rp3640
(lp3641
F37.51554731429171
aF15.884685936192739
aI0
abag2177
(g2201
g2179
Ntp3642
Rp3643
(lp3644
F0.0
aF0.0
aF-0.9941040989013071
aF0.10842988770454466
ababag2177
(g2193
g2179
Ntp3645
Rp3646
(lp3647
g2177
(g2197
g2179
Ntp3648
Rp3649
(lp3650
F37.22260153862028
aF15.82001157870644
aI0
abag2177
(g2201
g2179
Ntp3651
Rp3652
(lp3653
F0.0
aF0.0
aF-0.9941040989013071
aF0.10842988770454466
ababag2177
(g2193
g2179
Ntp3654
Rp3655
(lp3656
g2177
(g2197
g2179
Ntp3657
Rp3658
(lp3659
F36.929655762948855
aF15.755337221220142
aI0
abag2177
(g2201
g2179
Ntp3660
Rp3661
(lp3662
F0.0
aF0.0
aF-0.9941040989013071
aF0.10842988770454466
ababag2177
(g2193
g2179
Ntp3663
Rp3664
(lp3665
g2177
(g2197
g2179
Ntp3666
Rp3667
(lp3668
F36.63670998727743
aF15.690662863733845
aI0
abag2177
(g2201
g2179
Ntp3669
Rp3670
(lp3671
F0.0
aF0.0
aF-0.9941040989013071
aF0.10842988770454466
ababag2177
(g2193
g2179
Ntp3672
Rp3673
(lp3674
g2177
(g2197
g2179
Ntp3675
Rp3676
(lp3677
F36.343764211606
aF15.625988506247547
aI0
abag2177
(g2201
g2179
Ntp3678
Rp3679
(lp3680
F0.0
aF0.0
aF-0.9941040989013071
aF0.10842988770454466
ababag2177
(g2193
g2179
Ntp3681
Rp3682
(lp3683
g2177
(g2197
g2179
Ntp3684
Rp3685
(lp3686
F36.05081843593457
aF15.56131414876125
aI0
abag2177
(g2201
g2179
Ntp3687
Rp3688
(lp3689
F0.0
aF0.0
aF-0.9941040989013071
aF0.10842988770454466
ababag2177
(g2193
g2179
Ntp3690
Rp3691
(lp3692
g2177
(g2197
g2179
Ntp3693
Rp3694
(lp3695
F35.757872660263146
aF15.496639791274951
aI0
abag2177
(g2201
g2179
Ntp3696
Rp3697
(lp3698
F0.0
aF0.0
aF-0.9941040989013071
aF0.10842988770454466
ababag2177
(g2193
g2179
Ntp3699
Rp3700
(lp3701
g2177
(g2197
g2179
Ntp3702
Rp3703
(lp3704
F35.46492688459171
aF15.431965433788655
aI0
abag2177
(g2201
g2179
Ntp3705
Rp3706
(lp3707
F0.0
aF0.0
aF-0.9941040989013071
aF0.10842988770454466
ababag2177
(g2193
g2179
Ntp3708
Rp3709
(lp3710
g2177
(g2197
g2179
Ntp3711
Rp3712
(lp3713
F35.171981108920285
aF15.367291076302356
aI0
abag2177
(g2201
g2179
Ntp3714
Rp3715
(lp3716
F0.0
aF0.0
aF-0.9941040989013071
aF0.10842988770454466
ababag2177
(g2193
g2179
Ntp3717
Rp3718
(lp3719
g2177
(g2197
g2179
Ntp3720
Rp3721
(lp3722
F34.87903533324886
aF15.302616718816058
aI0
abag2177
(g2201
g2179
Ntp3723
Rp3724
(lp3725
F0.0
aF0.0
aF-0.9941040989013071
aF0.10842988770454466
ababag2177
(g2193
g2179
Ntp3726
Rp3727
(lp3728
g2177
(g2197
g2179
Ntp3729
Rp3730
(lp3731
F34.58608955757743
aF15.237942361329761
aI0
abag2177
(g2201
g2179
Ntp3732
Rp3733
(lp3734
F0.0
aF0.0
aF-0.9941040989013071
aF0.10842988770454466
ababag2177
(g2193
g2179
Ntp3735
Rp3736
(lp3737
g2177
(g2197
g2179
Ntp3738
Rp3739
(lp3740
F34.293143781906004
aF15.173268003843463
aI0
abag2177
(g2201
g2179
Ntp3741
Rp3742
(lp3743
F0.0
aF0.0
aF-0.9941040989013071
aF0.10842988770454466
ababag2177
(g2193
g2179
Ntp3744
Rp3745
(lp3746
g2177
(g2197
g2179
Ntp3747
Rp3748
(lp3749
F34.00019800623458
aF15.108593646357164
aI0
abag2177
(g2201
g2179
Ntp3750
Rp3751
(lp3752
F0.0
aF0.0
aF-0.9941040989013071
aF0.10842988770454466
ababag2177
(g2193
g2179
Ntp3753
Rp3754
(lp3755
g2177
(g2197
g2179
Ntp3756
Rp3757
(lp3758
F33.70725223056315
aF15.043919288870867
aI0
abag2177
(g2201
g2179
Ntp3759
Rp3760
(lp3761
F0.0
aF0.0
aF-0.9941040989013071
aF0.10842988770454466
ababag2177
(g2193
g2179
Ntp3762
Rp3763
(lp3764
g2177
(g2197
g2179
Ntp3765
Rp3766
(lp3767
F33.41430645489172
aF14.979244931384569
aI0
abag2177
(g2201
g2179
Ntp3768
Rp3769
(lp3770
F0.0
aF0.0
aF-0.9941040989013071
aF0.10842988770454466
ababag2177
(g2193
g2179
Ntp3771
Rp3772
(lp3773
g2177
(g2197
g2179
Ntp3774
Rp3775
(lp3776
F33.28619869761989
aF14.95096226756538
aI0
abag2177
(g2201
g2179
Ntp3777
Rp3778
(lp3779
F0.0
aF0.0
aF-0.9941040989013071
aF0.10842988770454466
ababag2177
(g2193
g2179
Ntp3780
Rp3781
(lp3782
g2177
(g2197
g2179
Ntp3783
Rp3784
(lp3785
F33.270860092674056
aF14.947575926126136
aI0
abag2177
(g2201
g2179
Ntp3786
Rp3787
(lp3788
F0.0
aF0.0
aF-0.9909250806894472
aF0.13441534309970946
ababag2177
(g2193
g2179
Ntp3789
Rp3790
(lp3791
g2177
(g2197
g2179
Ntp3792
Rp3793
(lp3794
F33.25571973617061
aF14.943391464992873
aI0
abag2177
(g2201
g2179
Ntp3795
Rp3796
(lp3797
F0.0
aF0.0
aF-0.9870669319250949
aF0.16030867693291012
ababag2177
(g2193
g2179
Ntp3798
Rp3799
(lp3800
g2177
(g2197
g2179
Ntp3801
Rp3802
(lp3803
F33.240819126774326
aF14.938420353482696
aI0
abag2177
(g2201
g2179
Ntp3804
Rp3805
(lp3806
F0.0
aF0.0
aF-0.9825322967906945
aF0.18609214320653783
ababag2177
(g2193
g2179
Ntp3807
Rp3808
(lp3809
g2177
(g2197
g2179
Ntp3810
Rp3811
(lp3812
F33.226199106019834
aF14.932676217066717
aI0
abag2177
(g2201
g2179
Ntp3813
Rp3814
(lp3815
F0.0
aF0.0
aF-0.9773242830986572
aF0.21174807122072176
ababag2177
(g2193
g2179
Ntp3816
Rp3817
(lp3818
g2177
(g2197
g2179
Ntp3819
Rp3820
(lp3821
F33.21189974636779
aF14.926174800023585
aI0
abag2177
(g2201
g2179
Ntp3822
Rp3823
(lp3824
F0.0
aF0.0
aF-0.9714464601614211
aF0.23725887768394338
ababag2177
(g2193
g2179
Ntp3825
Rp3826
(lp3827
g2177
(g2197
g2179
Ntp3828
Rp3829
(lp3830
F33.20004943287567
aF14.92001915309335
aI0
abag2177
(g2201
g2179
Ntp3831
Rp3832
(lp3833
F0.0
aF0.0
aF-0.9659258262888749
aF0.25881904510324244
ababag2177
(g2193
g2179
Ntp3834
Rp3835
(lp3836
g2177
(g2197
g2179
Ntp3837
Rp3838
(lp3839
F33.1999992579
aF14.9199996665
aI0
abag2177
(g2201
g2179
Ntp3840
Rp3841
(lp3842
F0.0
aF0.0
aF-0.9659258262888749
aF0.25881904510324244
ababag2177
(g2193
g2179
Ntp3843
Rp3844
(lp3845
g2177
(g2197
g2179
Ntp3846
Rp3847
(lp3848
F33.186395762668255
aF14.912145684866006
aI0
abag2177
(g2201
g2179
Ntp3849
Rp3850
(lp3851
F0.0
aF0.0
aF-0.9588197348679809
aF0.28401534470463896
ababag2177
(g2193
g2179
Ntp3852
Rp3853
(lp3854
g2177
(g2197
g2179
Ntp3855
Rp3856
(lp3857
F33.17322195619307
aF14.903590514909679
aI0
abag2177
(g2201
g2179
Ntp3858
Rp3859
(lp3860
F0.0
aF0.0
aF-0.9510565162949227
aF0.3090169943756581
ababag2177
(g2193
g2179
Ntp3861
Rp3862
(lp3863
g2177
(g2197
g2179
Ntp3864
Rp3865
(lp3866
F33.1605139469623
aF14.894357605757207
aI0
abag2177
(g2201
g2179
Ntp3867
Rp3868
(lp3869
F0.0
aF0.0
aF-0.942641491091929
aF0.33380685923447523
ababag2177
(g2193
g2179
Ntp3870
Rp3871
(lp3872
g2177
(g2197
g2179
Ntp3873
Rp3874
(lp3875
F33.14830656674591
aF14.884472264170807
aI0
abag2177
(g2201
g2179
Ntp3876
Rp3877
(lp3878
F0.0
aF0.0
aF-0.9335804264969341
aF0.3583679495459977
ababag2177
(g2193
g2179
Ntp3879
Rp3880
(lp3881
g2177
(g2197
g2179
Ntp3882
Rp3883
(lp3884
F33.13663327512456
aF14.873961585184645
aI0
abag2177
(g2201
g2179
Ntp3885
Rp3886
(lp3887
F0.0
aF0.0
aF-0.9238795325110009
aF0.3826834323657801
ababag2177
(g2193
g2179
Ntp3888
Rp3889
(lp3890
g2177
(g2197
g2179
Ntp3891
Rp3892
(lp3893
F33.13160908063407
aF14.868937390694146
aI0
abag2177
(g2201
g2179
Ntp3894
Rp3895
(lp3896
F0.0
aF0.0
aF-0.9192830676990689
aF0.39359705466604944
ababag2177
(g2193
g2179
Ntp3897
Rp3898
(lp3899
g2177
(g2197
g2179
Ntp3900
Rp3901
(lp3902
F32.924560265499146
aF14.651841125983712
aI0
abag2177
(g2201
g2179
Ntp3903
Rp3904
(lp3905
F0.0
aF0.0
aF-0.9192830676990689
aF0.39359705466604944
ababag2177
(g2193
g2179
Ntp3906
Rp3907
(lp3908
g2177
(g2197
g2179
Ntp3909
Rp3910
(lp3911
F32.71751145036422
aF14.434744861273277
aI0
abag2177
(g2201
g2179
Ntp3912
Rp3913
(lp3914
F0.0
aF0.0
aF-0.9192830676990689
aF0.39359705466604944
ababag2177
(g2193
g2179
Ntp3915
Rp3916
(lp3917
g2177
(g2197
g2179
Ntp3918
Rp3919
(lp3920
F32.510462635229295
aF14.217648596562842
aI0
abag2177
(g2201
g2179
Ntp3921
Rp3922
(lp3923
F0.0
aF0.0
aF-0.9192830676990689
aF0.39359705466604944
ababag2177
(g2193
g2179
Ntp3924
Rp3925
(lp3926
g2177
(g2197
g2179
Ntp3927
Rp3928
(lp3929
F32.30341382009437
aF14.000552331852408
aI0
abag2177
(g2201
g2179
Ntp3930
Rp3931
(lp3932
F0.0
aF0.0
aF-0.9192830676990689
aF0.39359705466604944
ababag2177
(g2193
g2179
Ntp3933
Rp3934
(lp3935
g2177
(g2197
g2179
Ntp3936
Rp3937
(lp3938
F32.096365004959445
aF13.783456067141975
aI0
abag2177
(g2201
g2179
Ntp3939
Rp3940
(lp3941
F0.0
aF0.0
aF-0.9192830676990689
aF0.39359705466604944
ababag2177
(g2193
g2179
Ntp3942
Rp3943
(lp3944
g2177
(g2197
g2179
Ntp3945
Rp3946
(lp3947
F31.889316189824516
aF13.56635980243154
aI0
abag2177
(g2201
g2179
Ntp3948
Rp3949
(lp3950
F0.0
aF0.0
aF-0.9192830676990689
aF0.39359705466604944
ababag2177
(g2193
g2179
Ntp3951
Rp3952
(lp3953
g2177
(g2197
g2179
Ntp3954
Rp3955
(lp3956
F31.682267374689587
aF13.349263537721106
aI0
abag2177
(g2201
g2179
Ntp3957
Rp3958
(lp3959
F0.0
aF0.0
aF-0.9192830676990689
aF0.39359705466604944
ababag2177
(g2193
g2179
Ntp3960
Rp3961
(lp3962
g2177
(g2197
g2179
Ntp3963
Rp3964
(lp3965
F31.475218559554662
aF13.13216727301067
aI0
abag2177
(g2201
g2179
Ntp3966
Rp3967
(lp3968
F0.0
aF0.0
aF-0.9192830676990689
aF0.39359705466604944
ababag2177
(g2193
g2179
Ntp3969
Rp3970
(lp3971
g2177
(g2197
g2179
Ntp3972
Rp3973
(lp3974
F31.268169744419737
aF12.915071008300236
aI0
abag2177
(g2201
g2179
Ntp3975
Rp3976
(lp3977
F0.0
aF0.0
aF-0.9192830676990689
aF0.39359705466604944
ababag2177
(g2193
g2179
Ntp3978
Rp3979
(lp3980
g2177
(g2197
g2179
Ntp3981
Rp3982
(lp3983
F31.1688713197424
aF12.810953932937927
aI0
abag2177
(g2201
g2179
Ntp3984
Rp3985
(lp3986
F0.0
aF0.0
aF-0.9192830676990689
aF0.39359705466604944
ababag2177
(g2193
g2179
Ntp3987
Rp3988
(lp3989
g2177
(g2197
g2179
Ntp3990
Rp3991
(lp3992
F31.158030269133025
aF12.799586799098993
aI0
abag2177
(g2201
g2179
Ntp3993
Rp3994
(lp3995
F0.0
aF0.0
aF-0.9292712221054996
aF0.3693981534422596
ababag2177
(g2193
g2179
Ntp3996
Rp3997
(lp3998
g2177
(g2197
g2179
Ntp3999
Rp4000
(lp4001
F31.146609165987535
aF12.788802620272243
aI0
abag2177
(g2201
g2179
Ntp4002
Rp4003
(lp4004
F0.0
aF0.0
aF-0.9386225004344326
aF0.3449460851759498
ababag2177
(g2193
g2179
Ntp4005
Rp4006
(lp4007
g2177
(g2197
g2179
Ntp4008
Rp4009
(lp4010
F31.134639314755777
aF12.778630955142246
aI0
abag2177
(g2201
g2179
Ntp4011
Rp4012
(lp4013
F0.0
aF0.0
aF-0.9473304937868078
aF0.320257608093302
ababag2177
(g2193
g2179
Ntp4014
Rp4015
(lp4016
g2177
(g2197
g2179
Ntp4017
Rp4018
(lp4019
F31.122153523967963
aF12.769099683536098
aI0
abag2177
(g2201
g2179
Ntp4020
Rp4021
(lp4022
F0.0
aF0.0
aF-0.9553892341389555
aF0.29534964244329154
ababag2177
(g2193
g2179
Ntp4023
Rp4024
(lp4025
g2177
(g2197
g2179
Ntp4026
Rp4027
(lp4028
F31.10918601630877
aF12.760234930006758
aI0
abag2177
(g2201
g2179
Ntp4029
Rp4030
(lp4031
F0.0
aF0.0
aF-0.9627931984327814
aF0.270239258901394
ababag2177
(g2193
g2179
Ntp4032
Rp4033
(lp4034
g2177
(g2197
g2179
Ntp4035
Rp4036
(lp4037
F31.095772334815322
aF12.752060992227474
aI0
abag2177
(g2201
g2179
Ntp4038
Rp4039
(lp4040
F0.0
aF0.0
aF-0.9695373123609949
aF0.2449436668701979
ababag2177
(g2193
g2179
Ntp4041
Rp4042
(lp4043
g2177
(g2197
g2179
Ntp4044
Rp4045
(lp4046
F31.08194924545623
aF12.74460027439353
aI0
abag2177
(g2201
g2179
Ntp4047
Rp4048
(lp4049
F0.0
aF0.0
aF-0.9756169538447856
aF0.21948020268493787
ababag2177
(g2193
g2179
Ntp4050
Rp4051
(lp4052
g2177
(g2197
g2179
Ntp4053
Rp4054
(lp4055
F31.067754636358586
aF12.737873225813924
aI0
abag2177
(g2201
g2179
Ntp4056
Rp4057
(lp4058
F0.0
aF0.0
aF-0.9810279562015652
aF0.19386631773203858
ababag2177
(g2193
g2179
Ntp4059
Rp4060
(lp4061
g2177
(g2197
g2179
Ntp4062
Rp4063
(lp4064
F31.053227413959277
aF12.73189828486122
aI0
abag2177
(g2201
g2179
Ntp4065
Rp4066
(lp4067
F0.0
aF0.0
aF-0.9857666110006041
aF0.16811956648880438
ababag2177
(g2193
g2179
Ntp4068
Rp4069
(lp4070
g2177
(g2197
g2179
Ntp4071
Rp4072
(lp4073
F31.038407396365127
aF12.726691828433259
aI0
abag2177
(g2201
g2179
Ntp4074
Rp4075
(lp4076
F0.0
aF0.0
aF-0.9898296706046043
aF0.14225759449245826
ababag2177
(g2193
g2179
Ntp4077
Rp4078
(lp4079
g2177
(g2197
g2179
Ntp4080
Rp4081
(lp4082
F31.02333520421423
aF12.72226812706521
aI0
abag2177
(g2201
g2179
Ntp4083
Rp4084
(lp4085
F0.0
aF0.0
aF-0.9932143503954671
aF0.11629812624677265
ababag2177
(g2193
g2179
Ntp4086
Rp4087
(lp4088
g2177
(g2197
g2179
Ntp4089
Rp4090
(lp4091
F31.00805214933762
aF12.718639305815035
aI0
abag2177
(g2201
g2179
Ntp4092
Rp4093
(lp4094
F0.0
aF0.0
aF-0.9959183306827327
aF0.0902589530745785
ababag2177
(g2193
g2179
Ntp4095
Rp4096
(lp4097
g2177
(g2197
g2179
Ntp4098
Rp4099
(lp4100
F31.001062634278988
aF12.71736191010233
aI0
abag2177
(g2201
g2179
Ntp4101
Rp4102
(lp4103
F0.0
aF0.0
aF-0.9969173337331161
aF0.07845909572799598
ababag2177
(g2193
g2179
Ntp4104
Rp4105
(lp4106
g2177
(g2197
g2179
Ntp4107
Rp4108
(lp4109
F30.9999993071
aF12.7199997157
aI0
abag2177
(g2201
g2179
Ntp4110
Rp4111
(lp4112
F0.0
aF0.0
aF-0.9969173337331161
aF0.0784590957279962
ababag2177
(g2193
g2179
Ntp4113
Rp4114
(lp4115
g2177
(g2197
g2179
Ntp4116
Rp4117
(lp4118
F30.98448473492575
aF12.717542448869303
aI0
abag2177
(g2201
g2179
Ntp4119
Rp4120
(lp4121
F0.0
aF0.0
aF-0.998629534754566
aF0.052335956243095415
ababag2177
(g2193
g2179
Ntp4122
Rp4123
(lp4124
g2177
(g2197
g2179
Ntp4125
Rp4126
(lp4127
F30.968862821524137
aF12.715900519607834
aI0
abag2177
(g2201
g2179
Ntp4128
Rp4129
(lp4130
F0.0
aF0.0
aF-0.9996573249755533
aF0.026176948308024743
ababag2177
(g2193
g2179
Ntp4131
Rp4132
(lp4133
g2177
(g2197
g2179
Ntp4134
Rp4135
(lp4136
F30.953176385473924
aF12.715078428329573
aI0
abag2177
(g2201
g2179
Ntp4137
Rp4138
(lp4139
F0.0
aF0.0
aF-1.0
aF1.5171769750375376e-13
ababag2177
(g2193
g2179
Ntp4140
Rp4141
(lp4142
g2177
(g2197
g2179
Ntp4143
Rp4144
(lp4145
F30.950409105472623
aF12.715078428329571
aI0
abag2177
(g2201
g2179
Ntp4146
Rp4147
(lp4148
F0.0
aF0.0
aF0.9999893641319021
aF0.00461211698399091
ababag2177
(g2193
g2179
Ntp4149
Rp4150
(lp4151
g2177
(g2197
g2179
Ntp4152
Rp4153
(lp4154
F30.650421868446468
aF12.717845669087644
aI0
abag2177
(g2201
g2179
Ntp4155
Rp4156
(lp4157
F0.0
aF0.0
aF0.9999893641319021
aF0.00461211698399091
ababag2177
(g2193
g2179
Ntp4158
Rp4159
(lp4160
g2177
(g2197
g2179
Ntp4161
Rp4162
(lp4163
F30.42902066272525
aF12.719887990775835
aI0
abag2177
(g2201
g2179
Ntp4164
Rp4165
(lp4166
F0.0
aF0.0
aF0.9999893641319021
aF0.00461211698399091
ababag2177
(g2193
g2179
Ntp4167
Rp4168
(lp4169
g2177
(g2197
g2179
Ntp4170
Rp4171
(lp4172
F30.41331336772505
aF12.720032883163105
aI0
abag2177
(g2201
g2179
Ntp4173
Rp4174
(lp4175
F0.0
aF0.0
aF-0.9997674238999856
aF0.021566133366613328
ababag2177
(g2193
g2179
Ntp4176
Rp4177
(lp4178
g2177
(g2197
g2179
Ntp4179
Rp4180
(lp4181
F30.40008642731724
aF12.719461976873008
aI0
abag2177
(g2201
g2179
Ntp4182
Rp4183
(lp4184
F0.0
aF0.0
aF-0.9990482215818561
aF0.043619387365374386
ababag2177
(g2193
g2179
Ntp4185
Rp4186
(lp4187
g2177
(g2197
g2179
Ntp4188
Rp4189
(lp4190
F30.3999993205
aF12.7199997157
aI0
abag2177
(g2201
g2179
Ntp4191
Rp4192
(lp4193
F0.0
aF0.0
aF-0.9990482215818561
aF0.043619387365374386
ababag2177
(g2193
g2179
Ntp4194
Rp4195
(lp4196
g2177
(g2197
g2179
Ntp4197
Rp4198
(lp4199
F30.38435113077465
aF12.718630676494328
aI0
abag2177
(g2201
g2179
Ntp4200
Rp4201
(lp4202
F0.0
aF0.0
aF-0.9998476951563906
aF0.017452406437322005
ababag2177
(g2193
g2179
Ntp4203
Rp4204
(lp4205
g2177
(g2197
g2179
Ntp4206
Rp4207
(lp4208
F30.36865273637351
aF12.718082476482055
aI0
abag2177
(g2201
g2179
Ntp4209
Rp4210
(lp4211
F0.0
aF0.0
aF0.9999619230641716
aF0.008726535498335707
ababag2177
(g2193
g2179
Ntp4212
Rp4213
(lp4214
g2177
(g2197
g2179
Ntp4215
Rp4216
(lp4217
F30.35294716550445
aF12.718356618241307
aI0
abag2177
(g2201
g2179
Ntp4218
Rp4219
(lp4220
F0.0
aF0.0
aF0.9993908270190971
aF0.03489949670246269
ababag2177
(g2193
g2179
Ntp4221
Rp4222
(lp4223
g2177
(g2197
g2179
Ntp4224
Rp4225
(lp4226
F30.337277466045542
aF12.71945235036858
aI0
abag2177
(g2201
g2179
Ntp4227
Rp4228
(lp4229
F0.0
aF0.0
aF0.9981347984218694
aF0.06104853953481856
ababag2177
(g2193
g2179
Ntp4230
Rp4231
(lp4232
g2177
(g2197
g2179
Ntp4233
Rp4234
(lp4235
F30.321686587553817
aF12.721366669538275
aI0
abag2177
(g2201
g2179
Ntp4236
Rp4237
(lp4238
F0.0
aF0.0
aF0.9961946980917489
aF0.08715574274762009
ababag2177
(g2193
g2179
Ntp4239
Rp4240
(lp4241
g2177
(g2197
g2179
Ntp4242
Rp4243
(lp4244
F30.30621726354351
aF12.724094328734614
aI0
abag2177
(g2201
g2179
Ntp4245
Rp4246
(lp4247
F0.0
aF0.0
aF0.9935718556765918
aF0.11320321376786865
ababag2177
(g2193
g2179
Ntp4248
Rp4249
(lp4250
g2177
(g2197
g2179
Ntp4251
Rp4252
(lp4253
F30.290911894356473
aF12.727627851633333
aI0
abag2177
(g2201
g2179
Ntp4254
Rp4255
(lp4256
F0.0
aF0.0
aF0.9902680687415757
aF0.13917310096002744
ababag2177
(g2193
g2179
Ntp4257
Rp4258
(lp4259
g2177
(g2197
g2179
Ntp4260
Rp4261
(lp4262
F30.275812430945788
aF12.731957553093778
aI0
abag2177
(g2201
g2179
Ntp4263
Rp4264
(lp4265
F0.0
aF0.0
aF0.9862856015372378
aF0.16504760586063993
ababag2177
(g2193
g2179
Ntp4266
Rp4267
(lp4268
g2177
(g2197
g2179
Ntp4269
Rp4270
(lp4271
F30.26096025989111
aF12.737071565705204
aI0
abag2177
(g2201
g2179
Ntp4272
Rp4273
(lp4274
F0.0
aF0.0
aF0.9816271834476713
aF0.1908089953765072
ababag2177
(g2193
g2179
Ntp4275
Rp4276
(lp4277
g2177
(g2197
g2179
Ntp4278
Rp4279
(lp4280
F30.24639608996094
aF12.742955872314512
aI0
abag2177
(g2201
g2179
Ntp4281
Rp4282
(lp4283
F0.0
aF0.0
aF0.9762960071199417
aF0.2164396139380654
ababag2177
(g2193
g2179
Ntp4284
Rp4285
(lp4286
g2177
(g2197
g2179
Ntp4287
Rp4288
(lp4289
F30.23215984053271
aF12.7495943444463
aI0
abag2177
(g2201
g2179
Ntp4290
Rp4291
(lp4292
F0.0
aF0.0
aF0.9702957262760057
aF0.24192189559963062
ababag2177
(g2193
g2179
Ntp4293
Rp4294
(lp4295
g2177
(g2197
g2179
Ntp4296
Rp4297
(lp4298
F30.218290532176557
aF12.756968786509885
aI0
abag2177
(g2201
g2179
Ntp4299
Rp4300
(lp4301
F0.0
aF0.0
aF0.9636304532086333
aF0.26723837607821993
ababag2177
(g2193
g2179
Ntp4302
Rp4303
(lp4304
g2177
(g2197
g2179
Ntp4305
Rp4306
(lp4307
F30.20482617970264
aF12.765058985672166
aI0
abag2177
(g2201
g2179
Ntp4308
Rp4309
(lp4310
F0.0
aF0.0
aF0.9563047559630468
aF0.2923717047227
ababag2177
(g2193
g2179
Ntp4311
Rp4312
(lp4313
g2177
(g2197
g2179
Ntp4314
Rp4315
(lp4316
F30.199577310395174
aF12.768599392723843
aI0
abag2177
(g2201
g2179
Ntp4317
Rp4318
(lp4319
F0.0
aF0.0
aF0.9531664272335303
aF0.30244629605083134
ababag2177
(g2193
g2179
Ntp4320
Rp4321
(lp4322
g2177
(g2197
g2179
Ntp4323
Rp4324
(lp4325
F29.954461567592094
aF12.941568385985914
aI0
abag2177
(g2201
g2179
Ntp4326
Rp4327
(lp4328
F0.0
aF0.0
aF0.9531664272335303
aF0.30244629605083134
ababag2177
(g2193
g2179
Ntp4329
Rp4330
(lp4331
g2177
(g2197
g2179
Ntp4332
Rp4333
(lp4334
F29.709345824789015
aF13.114537379247986
aI0
abag2177
(g2201
g2179
Ntp4335
Rp4336
(lp4337
F0.0
aF0.0
aF0.9531664272335303
aF0.30244629605083134
ababag2177
(g2193
g2179
Ntp4338
Rp4339
(lp4340
g2177
(g2197
g2179
Ntp4341
Rp4342
(lp4343
F29.464230081985935
aF13.287506372510057
aI0
abag2177
(g2201
g2179
Ntp4344
Rp4345
(lp4346
F0.0
aF0.0
aF0.9531664272335303
aF0.30244629605083134
ababag2177
(g2193
g2179
Ntp4347
Rp4348
(lp4349
g2177
(g2197
g2179
Ntp4350
Rp4351
(lp4352
F29.219114339182855
aF13.460475365772128
aI0
abag2177
(g2201
g2179
Ntp4353
Rp4354
(lp4355
F0.0
aF0.0
aF0.9531664272335303
aF0.30244629605083134
ababag2177
(g2193
g2179
Ntp4356
Rp4357
(lp4358
g2177
(g2197
g2179
Ntp4359
Rp4360
(lp4361
F28.973998596379776
aF13.633444359034199
aI0
abag2177
(g2201
g2179
Ntp4362
Rp4363
(lp4364
F0.0
aF0.0
aF0.9531664272335303
aF0.30244629605083134
ababag2177
(g2193
g2179
Ntp4365
Rp4366
(lp4367
g2177
(g2197
g2179
Ntp4368
Rp4369
(lp4370
F28.769056014745676
aF13.778064658066803
aI0
abag2177
(g2201
g2179
Ntp4371
Rp4372
(lp4373
F0.0
aF0.0
aF0.9531664272335303
aF0.30244629605083134
ababag2177
(g2193
g2179
Ntp4374
Rp4375
(lp4376
g2177
(g2197
g2179
Ntp4377
Rp4378
(lp4379
F28.756221784464522
aF13.787121293375652
aI0
abag2177
(g2201
g2179
Ntp4380
Rp4381
(lp4382
F0.0
aF0.0
aF0.9607569219624104
aF0.27739166696444734
ababag2177
(g2193
g2179
Ntp4383
Rp4384
(lp4385
g2177
(g2197
g2179
Ntp4386
Rp4387
(lp4388
F28.742931155380685
aF13.795493825166163
aI0
abag2177
(g2201
g2179
Ntp4389
Rp4390
(lp4391
F0.0
aF0.0
aF0.9676889618878565
aF0.25214692748554884
ababag2177
(g2193
g2179
Ntp4392
Rp4393
(lp4394
g2177
(g2197
g2179
Ntp4395
Rp4396
(lp4397
F28.729220556184668
aF13.803159304910666
aI0
abag2177
(g2201
g2179
Ntp4398
Rp4399
(lp4400
F0.0
aF0.0
aF0.9739577961359669
aF0.22672937909757176
ababag2177
(g2193
g2179
Ntp4401
Rp4402
(lp4403
g2177
(g2197
g2179
Ntp4404
Rp4405
(lp4406
F28.715127566675854
aF13.810096722062003
aI0
abag2177
(g2201
g2179
Ntp4407
Rp4408
(lp4409
F0.0
aF0.0
aF0.9795591283608831
aF0.20115644171854621
ababag2177
(g2193
g2179
Ntp4410
Rp4411
(lp4412
g2177
(g2197
g2179
Ntp4413
Rp4414
(lp4415
F28.70069081475889
aF13.816287061641976
aI0
abag2177
(g2201
g2179
Ntp4416
Rp4417
(lp4418
F0.0
aF0.0
aF0.9844891196892911
aF0.17544564176235547
ababag2177
(g2193
g2179
Ntp4419
Rp4420
(lp4421
g2177
(g2197
g2179
Ntp4422
Rp4423
(lp4424
F28.699662950930364
aF13.816665428996956
aI0
abag2177
(g2201
g2179
Ntp4425
Rp4426
(lp4427
F0.0
aF0.0
aF0.9848077530121275
aF0.17364817766738702
ababag2177
(g2193
g2179
Ntp4428
Rp4429
(lp4430
g2177
(g2197
g2179
Ntp4431
Rp4432
(lp4433
F28.6999993585
aF13.8199996911
aI0
abag2177
(g2201
g2179
Ntp4434
Rp4435
(lp4436
F0.0
aF0.0
aF0.9848077530121275
aF0.17364817766738702
ababag2177
(g2193
g2179
Ntp4437
Rp4438
(lp4439
g2177
(g2197
g2179
Ntp4440
Rp4441
(lp4442
F28.68523870132954
aF13.82537213094827
aI0
abag2177
(g2201
g2179
Ntp4443
Rp4444
(lp4445
F0.0
aF0.0
aF0.9799247046207372
aF0.1993679344176515
ababag2177
(g2193
g2179
Ntp4446
Rp4447
(lp4448
g2177
(g2197
g2179
Ntp4449
Rp4450
(lp4451
F28.67701949627781
aF13.828860976502002
aI0
abag2177
(g2201
g2179
Ntp4452
Rp4453
(lp4454
F0.0
aF0.0
aF0.9768493732974298
aF0.21392826341654475
ababag2177
(g2193
g2179
Ntp4455
Rp4456
(lp4457
g2177
(g2197
g2179
Ntp4458
Rp4459
(lp4460
F28.404478677410864
aF13.954246390531436
aI0
abag2177
(g2201
g2179
Ntp4461
Rp4462
(lp4463
F0.0
aF0.0
aF0.9768493732974298
aF0.21392826341654475
ababag2177
(g2193
g2179
Ntp4464
Rp4465
(lp4466
g2177
(g2197
g2179
Ntp4467
Rp4468
(lp4469
F28.131937858543914
aF14.079631804560872
aI0
abag2177
(g2201
g2179
Ntp4470
Rp4471
(lp4472
F0.0
aF0.0
aF0.9768493732974298
aF0.21392826341654475
ababag2177
(g2193
g2179
Ntp4473
Rp4474
(lp4475
g2177
(g2197
g2179
Ntp4476
Rp4477
(lp4478
F27.859397039676967
aF14.205017218590308
aI0
abag2177
(g2201
g2179
Ntp4479
Rp4480
(lp4481
F0.0
aF0.0
aF0.9768493732974298
aF0.21392826341654475
ababag2177
(g2193
g2179
Ntp4482
Rp4483
(lp4484
g2177
(g2197
g2179
Ntp4485
Rp4486
(lp4487
F27.586856220810017
aF14.330402632619743
aI0
abag2177
(g2201
g2179
Ntp4488
Rp4489
(lp4490
F0.0
aF0.0
aF0.9768493732974298
aF0.21392826341654475
ababag2177
(g2193
g2179
Ntp4491
Rp4492
(lp4493
g2177
(g2197
g2179
Ntp4494
Rp4495
(lp4496
F27.31431540194307
aF14.455788046649179
aI0
abag2177
(g2201
g2179
Ntp4497
Rp4498
(lp4499
F0.0
aF0.0
aF0.9768493732974298
aF0.21392826341654475
ababag2177
(g2193
g2179
Ntp4500
Rp4501
(lp4502
g2177
(g2197
g2179
Ntp4503
Rp4504
(lp4505
F27.04177458307612
aF14.581173460678615
aI0
abag2177
(g2201
g2179
Ntp4506
Rp4507
(lp4508
F0.0
aF0.0
aF0.9768493732974298
aF0.21392826341654475
ababag2177
(g2193
g2179
Ntp4509
Rp4510
(lp4511
g2177
(g2197
g2179
Ntp4512
Rp4513
(lp4514
F26.769233764209172
aF14.70655887470805
aI0
abag2177
(g2201
g2179
Ntp4515
Rp4516
(lp4517
F0.0
aF0.0
aF0.9768493732974298
aF0.21392826341654475
ababag2177
(g2193
g2179
Ntp4518
Rp4519
(lp4520
g2177
(g2197
g2179
Ntp4521
Rp4522
(lp4523
F26.49669294534222
aF14.831944288737485
aI0
abag2177
(g2201
g2179
Ntp4524
Rp4525
(lp4526
F0.0
aF0.0
aF0.9768493732974298
aF0.21392826341654475
ababag2177
(g2193
g2179
Ntp4527
Rp4528
(lp4529
g2177
(g2197
g2179
Ntp4530
Rp4531
(lp4532
F26.224152126475275
aF14.957329702766922
aI0
abag2177
(g2201
g2179
Ntp4533
Rp4534
(lp4535
F0.0
aF0.0
aF0.9768493732974298
aF0.21392826341654475
ababag2177
(g2193
g2179
Ntp4536
Rp4537
(lp4538
g2177
(g2197
g2179
Ntp4539
Rp4540
(lp4541
F25.951611307608324
aF15.082715116796358
aI0
abag2177
(g2201
g2179
Ntp4542
Rp4543
(lp4544
F0.0
aF0.0
aF0.9768493732974298
aF0.21392826341654475
ababag2177
(g2193
g2179
Ntp4545
Rp4546
(lp4547
g2177
(g2197
g2179
Ntp4548
Rp4549
(lp4550
F25.679070488741374
aF15.208100530825792
aI0
abag2177
(g2201
g2179
Ntp4551
Rp4552
(lp4553
F0.0
aF0.0
aF0.9768493732974298
aF0.21392826341654475
ababag2177
(g2193
g2179
Ntp4554
Rp4555
(lp4556
g2177
(g2197
g2179
Ntp4557
Rp4558
(lp4559
F25.406529669874427
aF15.333485944855228
aI0
abag2177
(g2201
g2179
Ntp4560
Rp4561
(lp4562
F0.0
aF0.0
aF0.9768493732974298
aF0.21392826341654475
ababag2177
(g2193
g2179
Ntp4563
Rp4564
(lp4565
g2177
(g2197
g2179
Ntp4566
Rp4567
(lp4568
F25.133988851007476
aF15.458871358884664
aI0
abag2177
(g2201
g2179
Ntp4569
Rp4570
(lp4571
F0.0
aF0.0
aF0.9768493732974298
aF0.21392826341654475
ababag2177
(g2193
g2179
Ntp4572
Rp4573
(lp4574
g2177
(g2197
g2179
Ntp4575
Rp4576
(lp4577
F25.022578321040758
aF15.510127003764543
aI0
abag2177
(g2201
g2179
Ntp4578
Rp4579
(lp4580
F0.0
aF0.0
aF0.9768493732974298
aF0.21392826341654475
ababag2177
(g2193
g2179
Ntp4581
Rp4582
(lp4583
g2177
(g2197
g2179
Ntp4584
Rp4585
(lp4586
F25.008308117134828
aF15.516692168690913
aI0
abag2177
(g2201
g2179
Ntp4587
Rp4588
(lp4589
F0.0
aF0.0
aF0.9821146205076062
aF0.18828401999426447
ababag2177
(g2193
g2179
Ntp4590
Rp4591
(lp4592
g2177
(g2197
g2179
Ntp4593
Rp4594
(lp4595
F25.000012181434347
aF15.5199944142653
aI0
abag2177
(g2201
g2179
Ntp4596
Rp4597
(lp4598
F0.0
aF0.0
aF0.9848077530121275
aF0.17364817766738702
ababag2177
(g2193
g2179
Ntp4599
Rp4600
(lp4601
g2177
(g2197
g2179
Ntp4602
Rp4603
(lp4604
F24.9999994412
aF15.5199996531
aI0
abag2177
(g2201
g2179
Ntp4605
Rp4606
(lp4607
F0.0
aF0.0
aF0.9848077530121275
aF0.17364817766738702
ababag2177
(g2193
g2179
Ntp4608
Rp4609
(lp4610
g2177
(g2197
g2179
Ntp4611
Rp4612
(lp4613
F24.985238784029537
aF15.52537209294827
aI0
abag2177
(g2201
g2179
Ntp4614
Rp4615
(lp4616
F0.0
aF0.0
aF0.9890158633618483
aF0.14780941113006932
ababag2177
(g2193
g2179
Ntp4617
Rp4618
(lp4619
g2177
(g2197
g2179
Ntp4620
Rp4621
(lp4622
F24.970217184049908
aF15.529964656946657
aI0
abag2177
(g2201
g2179
Ntp4623
Rp4624
(lp4625
F0.0
aF0.0
aF0.9925461516412656
aF0.12186934340560766
ababag2177
(g2193
g2179
Ntp4626
Rp4627
(lp4628
g2177
(g2197
g2179
Ntp4629
Rp4630
(lp4631
F24.95497581442252
aF15.533764757196463
aI0
abag2177
(g2201
g2179
Ntp4632
Rp4633
(lp4634
F0.0
aF0.0
aF0.9953961983671343
aF0.09584575252068557
ababag2177
(g2193
g2179
Ntp4635
Rp4636
(lp4637
g2177
(g2197
g2179
Ntp4638
Rp4639
(lp4640
F24.939556450682108
aF15.536761977887046
aI0
abag2177
(g2201
g2179
Ntp4641
Rp4642
(lp4643
F0.0
aF0.0
aF0.9975640502597919
aF0.06975647374458796
ababag2177
(g2193
g2179
Ntp4644
Rp4645
(lp4646
g2177
(g2197
g2179
Ntp4647
Rp4648
(lp4649
F24.924001356232896
aF15.53894810384483
aI0
abag2177
(g2201
g2179
Ntp4650
Rp4651
(lp4652
F0.0
aF0.0
aF0.9990482215818376
aF0.0436193873657992
ababag2177
(g2193
g2179
Ntp4653
Rp4654
(lp4655
g2177
(g2197
g2179
Ntp4656
Rp4657
(lp4658
F24.913657474522925
aF15.539853076231314
aI0
abag2177
(g2201
g2179
Ntp4659
Rp4660
(lp4661
F0.0
aF0.0
aF0.999653449410002
aF0.026324533855030197
ababag2177
(g2193
g2179
Ntp4662
Rp4663
(lp4664
g2177
(g2197
g2179
Ntp4665
Rp4666
(lp4667
F24.614073263172536
aF15.55564232287469
aI0
abag2177
(g2201
g2179
Ntp4668
Rp4669
(lp4670
F0.0
aF0.0
aF0.999653449410002
aF0.026324533855030197
ababag2177
(g2193
g2179
Ntp4671
Rp4672
(lp4673
g2177
(g2197
g2179
Ntp4674
Rp4675
(lp4676
F24.314489051822147
aF15.571431569518063
aI0
abag2177
(g2201
g2179
Ntp4677
Rp4678
(lp4679
F0.0
aF0.0
aF0.999653449410002
aF0.026324533855030197
ababag2177
(g2193
g2179
Ntp4680
Rp4681
(lp4682
g2177
(g2197
g2179
Ntp4683
Rp4684
(lp4685
F24.014904840471758
aF15.587220816161437
aI0
abag2177
(g2201
g2179
Ntp4686
Rp4687
(lp4688
F0.0
aF0.0
aF0.999653449410002
aF0.026324533855030197
ababag2177
(g2193
g2179
Ntp4689
Rp4690
(lp4691
g2177
(g2197
g2179
Ntp4692
Rp4693
(lp4694
F23.71532062912137
aF15.603010062804813
aI0
abag2177
(g2201
g2179
Ntp4695
Rp4696
(lp4697
F0.0
aF0.0
aF0.999653449410002
aF0.026324533855030197
ababag2177
(g2193
g2179
Ntp4698
Rp4699
(lp4700
g2177
(g2197
g2179
Ntp4701
Rp4702
(lp4703
F23.41573641777098
aF15.618799309448187
aI0
abag2177
(g2201
g2179
Ntp4704
Rp4705
(lp4706
F0.0
aF0.0
aF0.999653449410002
aF0.026324533855030197
ababag2177
(g2193
g2179
Ntp4707
Rp4708
(lp4709
g2177
(g2197
g2179
Ntp4710
Rp4711
(lp4712
F23.11615220642059
aF15.634588556091563
aI0
abag2177
(g2201
g2179
Ntp4713
Rp4714
(lp4715
F0.0
aF0.0
aF0.999653449410002
aF0.026324533855030197
ababag2177
(g2193
g2179
Ntp4716
Rp4717
(lp4718
g2177
(g2197
g2179
Ntp4719
Rp4720
(lp4721
F22.8165679950702
aF15.650377802734937
aI0
abag2177
(g2201
g2179
Ntp4722
Rp4723
(lp4724
F0.0
aF0.0
aF0.999653449410002
aF0.026324533855030197
ababag2177
(g2193
g2179
Ntp4725
Rp4726
(lp4727
g2177
(g2197
g2179
Ntp4728
Rp4729
(lp4730
F22.516983783719812
aF15.666167049378313
aI0
abag2177
(g2201
g2179
Ntp4731
Rp4732
(lp4733
F0.0
aF0.0
aF0.999653449410002
aF0.026324533855030197
ababag2177
(g2193
g2179
Ntp4734
Rp4735
(lp4736
g2177
(g2197
g2179
Ntp4737
Rp4738
(lp4739
F22.217399572369423
aF15.681956296021687
aI0
abag2177
(g2201
g2179
Ntp4740
Rp4741
(lp4742
F0.0
aF0.0
aF0.999653449410002
aF0.026324533855030197
ababag2177
(g2193
g2179
Ntp4743
Rp4744
(lp4745
g2177
(g2197
g2179
Ntp4746
Rp4747
(lp4748
F21.917815361019034
aF15.697745542665063
aI0
abag2177
(g2201
g2179
Ntp4749
Rp4750
(lp4751
F0.0
aF0.0
aF0.999653449410002
aF0.026324533855030197
ababag2177
(g2193
g2179
Ntp4752
Rp4753
(lp4754
g2177
(g2197
g2179
Ntp4755
Rp4756
(lp4757
F21.618231149668645
aF15.713534789308437
aI0
abag2177
(g2201
g2179
Ntp4758
Rp4759
(lp4760
F0.0
aF0.0
aF0.999653449410002
aF0.026324533855030197
ababag2177
(g2193
g2179
Ntp4761
Rp4762
(lp4763
g2177
(g2197
g2179
Ntp4764
Rp4765
(lp4766
F21.318646938318253
aF15.729324035951812
aI0
abag2177
(g2201
g2179
Ntp4767
Rp4768
(lp4769
F0.0
aF0.0
aF0.999653449410002
aF0.026324533855030197
ababag2177
(g2193
g2179
Ntp4770
Rp4771
(lp4772
g2177
(g2197
g2179
Ntp4773
Rp4774
(lp4775
F21.11886964991885
aF15.739853071731316
aI0
abag2177
(g2201
g2179
Ntp4776
Rp4777
(lp4778
F0.0
aF0.0
aF0.999653449410002
aF0.026324533855030197
ababag2177
(g2193
g2179
Ntp4779
Rp4780
(lp4781
g2177
(g2197
g2179
Ntp4782
Rp4783
(lp4784
F21.103183457293685
aF15.740679794752324
aI0
abag2177
(g2201
g2179
Ntp4785
Rp4786
(lp4787
F0.0
aF0.0
aF0.9999999891017431
aF0.00014763642375534308
ababag2177
(g2193
g2179
Ntp4788
Rp4789
(lp4790
g2177
(g2197
g2179
Ntp4791
Rp4792
(lp4793
F21.087475494710493
aF15.740684432887317
aI0
abag2177
(g2201
g2179
Ntp4794
Rp4795
(lp4796
F0.0
aF0.0
aF-0.999661178752068
aF0.02602936219015009
ababag2177
(g2193
g2179
Ntp4797
Rp4798
(lp4799
g2177
(g2197
g2179
Ntp4800
Rp4801
(lp4802
F21.07178881660287
aF15.739866973423487
aI0
abag2177
(g2201
g2179
Ntp4803
Rp4804
(lp4805
F0.0
aF0.0
aF-0.9986372505646662
aF0.052188521579405706
ababag2177
(g2193
g2179
Ntp4806
Rp4807
(lp4808
g2177
(g2197
g2179
Ntp4809
Rp4810
(lp4811
F21.056166419065136
aF15.738229656960403
aI0
abag2177
(g2201
g2179
Ntp4812
Rp4813
(lp4814
F0.0
aF0.0
aF-0.9969289062887712
aF0.07831191356284561
ababag2177
(g2193
g2179
Ntp4815
Rp4816
(lp4817
g2177
(g2197
g2179
Ntp4818
Rp4819
(lp4820
F21.040651122003048
aF15.735776971268685
aI0
abag2177
(g2201
g2179
Ntp4821
Rp4822
(lp4823
F0.0
aF0.0
aF-0.9945373167382157
aF0.10438163447249714
ababag2177
(g2193
g2179
Ntp4824
Rp4825
(lp4826
g2177
(g2197
g2179
Ntp4827
Rp4828
(lp4829
F21.025285451767395
aF15.732515638989325
aI0
abag2177
(g2201
g2179
Ntp4830
Rp4831
(lp4832
F0.0
aF0.0
aF-0.9914641209890154
aF0.13037981742385996
ababag2177
(g2193
g2179
Ntp4833
Rp4834
(lp4835
g2177
(g2197
g2179
Ntp4836
Rp4837
(lp4838
F21.010111524592237
aF15.728454599207412
aI0
abag2177
(g2201
g2179
Ntp4839
Rp4840
(lp4841
F0.0
aF0.0
aF-0.9877114252560271
aF0.15628864456097769
ababag2177
(g2193
g2179
Ntp4842
Rp4843
(lp4844
g2177
(g2197
g2179
Ntp4845
Rp4846
(lp4847
F21.0000668745397
aF15.725194173281253
aI0
abag2177
(g2201
g2179
Ntp4848
Rp4849
(lp4850
F0.0
aF0.0
aF-0.9848077530121275
aF0.17364817766738702
ababag2177
(g2193
g2179
Ntp4851
Rp4852
(lp4853
g2177
(g2197
g2179
Ntp4854
Rp4855
(lp4856
F20.9999995306
aF15.7199996486
aI0
abag2177
(g2201
g2179
Ntp4857
Rp4858
(lp4859
F0.0
aF0.0
aF-0.9848077530121275
aF0.17364817766738702
ababag2177
(g2193
g2179
Ntp4860
Rp4861
(lp4862
g2177
(g2197
g2179
Ntp4863
Rp4864
(lp4865
F20.985238873429537
aF15.714627208751729
aI0
abag2177
(g2201
g2179
Ntp4866
Rp4867
(lp4868
F0.0
aF0.0
aF-0.9799247046207372
aF0.1993679344176515
ababag2177
(g2193
g2179
Ntp4869
Rp4870
(lp4871
g2177
(g2197
g2179
Ntp4872
Rp4873
(lp4874
F20.970779617003544
aF15.708489618537762
aI0
abag2177
(g2201
g2179
Ntp4875
Rp4876
(lp4877
F0.0
aF0.0
aF-0.9743700647851309
aF0.2249510543443169
ababag2177
(g2193
g2179
Ntp4878
Rp4879
(lp4880
g2177
(g2197
g2179
Ntp4881
Rp4882
(lp4883
F20.9695905974174
aF15.707909694937154
aI0
abag2177
(g2201
g2179
Ntp4884
Rp4885
(lp4886
F0.0
aF0.0
aF-0.9738717151759264
aF0.2270988383508361
ababag2177
(g2193
g2179
Ntp4887
Rp4888
(lp4889
g2177
(g2197
g2179
Ntp4890
Rp4891
(lp4892
F20.70053492684558
aF15.575210613805641
aI0
abag2177
(g2201
g2179
Ntp4893
Rp4894
(lp4895
F0.0
aF0.0
aF-0.9738717151759264
aF0.2270988383508361
ababag2177
(g2193
g2179
Ntp4896
Rp4897
(lp4898
g2177
(g2197
g2179
Ntp4899
Rp4900
(lp4901
F20.43147925627376
aF15.442511532674127
aI0
abag2177
(g2201
g2179
Ntp4902
Rp4903
(lp4904
F0.0
aF0.0
aF-0.9738717151759264
aF0.2270988383508361
ababag2177
(g2193
g2179
Ntp4905
Rp4906
(lp4907
g2177
(g2197
g2179
Ntp4908
Rp4909
(lp4910
F20.16242358570194
aF15.309812451542614
aI0
abag2177
(g2201
g2179
Ntp4911
Rp4912
(lp4913
F0.0
aF0.0
aF-0.9738717151759264
aF0.2270988383508361
ababag2177
(g2193
g2179
Ntp4914
Rp4915
(lp4916
g2177
(g2197
g2179
Ntp4917
Rp4918
(lp4919
F19.89336791513012
aF15.177113370411101
aI0
abag2177
(g2201
g2179
Ntp4920
Rp4921
(lp4922
F0.0
aF0.0
aF-0.9738717151759264
aF0.2270988383508361
ababag2177
(g2193
g2179
Ntp4923
Rp4924
(lp4925
g2177
(g2197
g2179
Ntp4926
Rp4927
(lp4928
F19.624312244558297
aF15.044414289279587
aI0
abag2177
(g2201
g2179
Ntp4929
Rp4930
(lp4931
F0.0
aF0.0
aF-0.9738717151759264
aF0.2270988383508361
ababag2177
(g2193
g2179
Ntp4932
Rp4933
(lp4934
g2177
(g2197
g2179
Ntp4935
Rp4936
(lp4937
F19.355256573986477
aF14.911715208148074
aI0
abag2177
(g2201
g2179
Ntp4938
Rp4939
(lp4940
F0.0
aF0.0
aF-0.9738717151759264
aF0.2270988383508361
ababag2177
(g2193
g2179
Ntp4941
Rp4942
(lp4943
g2177
(g2197
g2179
Ntp4944
Rp4945
(lp4946
F19.086200903414657
aF14.77901612701656
aI0
abag2177
(g2201
g2179
Ntp4947
Rp4948
(lp4949
F0.0
aF0.0
aF-0.9738717151759264
aF0.2270988383508361
ababag2177
(g2193
g2179
Ntp4950
Rp4951
(lp4952
g2177
(g2197
g2179
Ntp4953
Rp4954
(lp4955
F18.817145232842837
aF14.646317045885047
aI0
abag2177
(g2201
g2179
Ntp4956
Rp4957
(lp4958
F0.0
aF0.0
aF-0.9738717151759264
aF0.2270988383508361
ababag2177
(g2193
g2179
Ntp4959
Rp4960
(lp4961
g2177
(g2197
g2179
Ntp4962
Rp4963
(lp4964
F18.548089562271016
aF14.513617964753532
aI0
abag2177
(g2201
g2179
Ntp4965
Rp4966
(lp4967
F0.0
aF0.0
aF-0.9738717151759264
aF0.2270988383508361
ababag2177
(g2193
g2179
Ntp4968
Rp4969
(lp4970
g2177
(g2197
g2179
Ntp4971
Rp4972
(lp4973
F18.279033891699196
aF14.38091888362202
aI0
abag2177
(g2201
g2179
Ntp4974
Rp4975
(lp4976
F0.0
aF0.0
aF-0.9738717151759264
aF0.2270988383508361
ababag2177
(g2193
g2179
Ntp4977
Rp4978
(lp4979
g2177
(g2197
g2179
Ntp4980
Rp4981
(lp4982
F18.009978221127376
aF14.248219802490505
aI0
abag2177
(g2201
g2179
Ntp4983
Rp4984
(lp4985
F0.0
aF0.0
aF-0.9738717151759264
aF0.2270988383508361
ababag2177
(g2193
g2179
Ntp4986
Rp4987
(lp4988
g2177
(g2197
g2179
Ntp4989
Rp4990
(lp4991
F17.740922550555553
aF14.115520721358992
aI0
abag2177
(g2201
g2179
Ntp4992
Rp4993
(lp4994
F0.0
aF0.0
aF-0.9738717151759264
aF0.2270988383508361
ababag2177
(g2193
g2179
Ntp4995
Rp4996
(lp4997
g2177
(g2197
g2179
Ntp4998
Rp4999
(lp5000
F17.471866879983732
aF13.982821640227478
aI0
abag2177
(g2201
g2179
Ntp5001
Rp5002
(lp5003
F0.0
aF0.0
aF-0.9738717151759264
aF0.2270988383508361
ababag2177
(g2193
g2179
Ntp5004
Rp5005
(lp5006
g2177
(g2197
g2179
Ntp5007
Rp5008
(lp5009
F17.202811209411912
aF13.850122559095965
aI0
abag2177
(g2201
g2179
Ntp5010
Rp5011
(lp5012
F0.0
aF0.0
aF-0.9738717151759264
aF0.2270988383508361
ababag2177
(g2193
g2179
Ntp5013
Rp5014
(lp5015
g2177
(g2197
g2179
Ntp5016
Rp5017
(lp5018
F16.933755538840096
aF13.717423477964452
aI0
abag2177
(g2201
g2179
Ntp5019
Rp5020
(lp5021
F0.0
aF0.0
aF-0.9738717151759264
aF0.2270988383508361
ababag2177
(g2193
g2179
Ntp5022
Rp5023
(lp5024
g2177
(g2197
g2179
Ntp5025
Rp5026
(lp5027
F16.664699868268272
aF13.584724396832938
aI0
abag2177
(g2201
g2179
Ntp5028
Rp5029
(lp5030
F0.0
aF0.0
aF-0.9738717151759264
aF0.2270988383508361
ababag2177
(g2193
g2179
Ntp5031
Rp5032
(lp5033
g2177
(g2197
g2179
Ntp5034
Rp5035
(lp5036
F16.395644197696452
aF13.452025315701425
aI0
abag2177
(g2201
g2179
Ntp5037
Rp5038
(lp5039
F0.0
aF0.0
aF-0.9738717151759264
aF0.2270988383508361
ababag2177
(g2193
g2179
Ntp5040
Rp5041
(lp5042
g2177
(g2197
g2179
Ntp5043
Rp5044
(lp5045
F16.126588527124632
aF13.31932623456991
aI0
abag2177
(g2201
g2179
Ntp5046
Rp5047
(lp5048
F0.0
aF0.0
aF-0.9738717151759264
aF0.2270988383508361
ababag2177
(g2193
g2179
Ntp5049
Rp5050
(lp5051
g2177
(g2197
g2179
Ntp5052
Rp5053
(lp5054
F15.857532856552812
aF13.186627153438398
aI0
abag2177
(g2201
g2179
Ntp5055
Rp5056
(lp5057
F0.0
aF0.0
aF-0.9738717151759264
aF0.2270988383508361
ababag2177
(g2193
g2179
Ntp5058
Rp5059
(lp5060
g2177
(g2197
g2179
Ntp5061
Rp5062
(lp5063
F15.588477185980992
aF13.053928072306885
aI0
abag2177
(g2201
g2179
Ntp5064
Rp5065
(lp5066
F0.0
aF0.0
aF-0.9738717151759264
aF0.2270988383508361
ababag2177
(g2193
g2179
Ntp5067
Rp5068
(lp5069
g2177
(g2197
g2179
Ntp5070
Rp5071
(lp5072
F15.319421515409172
aF12.921228991175372
aI0
abag2177
(g2201
g2179
Ntp5073
Rp5074
(lp5075
F0.0
aF0.0
aF-0.9738717151759264
aF0.2270988383508361
ababag2177
(g2193
g2179
Ntp5076
Rp5077
(lp5078
g2177
(g2197
g2179
Ntp5079
Rp5080
(lp5081
F15.050365844837351
aF12.788529910043858
aI0
abag2177
(g2201
g2179
Ntp5082
Rp5083
(lp5084
F0.0
aF0.0
aF-0.9738717151759264
aF0.2270988383508361
ababag2177
(g2193
g2179
Ntp5085
Rp5086
(lp5087
g2177
(g2197
g2179
Ntp5088
Rp5089
(lp5090
F14.781310174265531
aF12.655830828912343
aI0
abag2177
(g2201
g2179
Ntp5091
Rp5092
(lp5093
F0.0
aF0.0
aF-0.9738717151759264
aF0.2270988383508361
ababag2177
(g2193
g2179
Ntp5094
Rp5095
(lp5096
g2177
(g2197
g2179
Ntp5097
Rp5098
(lp5099
F14.512254503693711
aF12.52313174778083
aI0
abag2177
(g2201
g2179
Ntp5100
Rp5101
(lp5102
F0.0
aF0.0
aF-0.9738717151759264
aF0.2270988383508361
ababag2177
(g2193
g2179
Ntp5103
Rp5104
(lp5105
g2177
(g2197
g2179
Ntp5106
Rp5107
(lp5108
F14.243198833121891
aF12.390432666649318
aI0
abag2177
(g2201
g2179
Ntp5109
Rp5110
(lp5111
F0.0
aF0.0
aF-0.9738717151759264
aF0.2270988383508361
ababag2177
(g2193
g2179
Ntp5112
Rp5113
(lp5114
g2177
(g2197
g2179
Ntp5115
Rp5116
(lp5117
F13.974143162550071
aF12.257733585517805
aI0
abag2177
(g2201
g2179
Ntp5118
Rp5119
(lp5120
F0.0
aF0.0
aF-0.9738717151759264
aF0.2270988383508361
ababag2177
(g2193
g2179
Ntp5121
Rp5122
(lp5123
g2177
(g2197
g2179
Ntp5124
Rp5125
(lp5126
F13.70508749197825
aF12.12503450438629
aI0
abag2177
(g2201
g2179
Ntp5127
Rp5128
(lp5129
F0.0
aF0.0
aF-0.9738717151759264
aF0.2270988383508361
ababag2177
(g2193
g2179
Ntp5130
Rp5131
(lp5132
g2177
(g2197
g2179
Ntp5133
Rp5134
(lp5135
F13.43603182140643
aF11.992335423254776
aI0
abag2177
(g2201
g2179
Ntp5136
Rp5137
(lp5138
F0.0
aF0.0
aF-0.9738717151759264
aF0.2270988383508361
ababag2177
(g2193
g2179
Ntp5139
Rp5140
(lp5141
g2177
(g2197
g2179
Ntp5142
Rp5143
(lp5144
F13.166976150834607
aF11.859636342123263
aI0
abag2177
(g2201
g2179
Ntp5145
Rp5146
(lp5147
F0.0
aF0.0
aF-0.9738717151759264
aF0.2270988383508361
ababag2177
(g2193
g2179
Ntp5148
Rp5149
(lp5150
g2177
(g2197
g2179
Ntp5151
Rp5152
(lp5153
F13.126792354355251
aF11.839817570573667
aI0
abag2177
(g2201
g2179
Ntp5154
Rp5155
(lp5156
F0.0
aF0.0
aF-0.9738717151759264
aF0.2270988383508361
ababag2177
(g2193
g2179
Ntp5157
Rp5158
(lp5159
g2177
(g2197
g2179
Ntp5160
Rp5161
(lp5162
F13.112704632387333
aF11.832869462933319
aI0
abag2177
(g2201
g2179
Ntp5163
Rp5164
(lp5165
F0.0
aF0.0
aF-0.9675932391098366
aF0.25251400679751324
ababag2177
(g2193
g2179
Ntp5166
Rp5167
(lp5168
g2177
(g2197
g2179
Ntp5169
Rp5170
(lp5171
F13.098999853010195
aF11.825193583032537
aI0
abag2177
(g2201
g2179
Ntp5172
Rp5173
(lp5174
F0.0
aF0.0
aF-0.9606516229700216
aF0.2777561147572877
ababag2177
(g2193
g2179
Ntp5175
Rp5176
(lp5177
g2177
(g2197
g2179
Ntp5178
Rp5179
(lp5180
F13.085715580071502
aF11.816810969924587
aI0
abag2177
(g2201
g2179
Ntp5181
Rp5182
(lp5183
F0.0
aF0.0
aF-0.9530516241934421
aF0.30280786255023473
ababag2177
(g2193
g2179
Ntp5184
Rp5185
(lp5186
g2177
(g2197
g2179
Ntp5187
Rp5188
(lp5189
F13.072888224840005
aF11.807744599769329
aI0
abag2177
(g2201
g2179
Ntp5190
Rp5191
(lp5192
F0.0
aF0.0
aF-0.9447984514396315
aF0.3276520809597801
ababag2177
(g2193
g2179
Ntp5193
Rp5194
(lp5195
g2177
(g2197
g2179
Ntp5196
Rp5197
(lp5198
F13.06055294620477
aF11.798019322857161
aI0
abag2177
(g2201
g2179
Ntp5199
Rp5200
(lp5201
F0.0
aF0.0
aF-0.9358977610209397
aF0.3522717429996225
ababag2177
(g2193
g2179
Ntp5202
Rp5203
(lp5204
g2177
(g2197
g2179
Ntp5205
Rp5206
(lp5207
F13.048743554307123
aF11.787661795496106
aI0
abag2177
(g2201
g2179
Ntp5208
Rp5209
(lp5210
F0.0
aF0.0
aF-0.9263556530259804
aF0.37664997558317886
ababag2177
(g2193
g2179
Ntp5211
Rp5212
(lp5213
g2177
(g2197
g2179
Ntp5214
Rp5215
(lp5216
F13.037492417869395
aF11.776700406948718
aI0
abag2177
(g2201
g2179
Ntp5217
Rp5218
(lp5219
F0.0
aF0.0
aF-0.9161786671389346
aF0.40077007108755686
ababag2177
(g2193
g2179
Ntp5220
Rp5221
(lp5222
g2177
(g2197
g2179
Ntp5223
Rp5224
(lp5225
F13.026830375474502
aF11.765165201619087
aI0
abag2177
(g2201
g2179
Ntp5226
Rp5227
(lp5228
F0.0
aF0.0
aF-0.9053737781575772
aF0.42461549880412297
ababag2177
(g2193
g2179
Ntp5229
Rp5230
(lp5231
g2177
(g2197
g2179
Ntp5232
Rp5233
(lp5234
F13.016786651039542
aF11.753087796703218
aI0
abag2177
(g2201
g2179
Ntp5235
Rp5236
(lp5237
F0.0
aF0.0
aF-0.8939483912131
aF0.44816991626782615
ababag2177
(g2193
g2179
Ntp5238
Rp5239
(lp5240
g2177
(g2197
g2179
Ntp5241
Rp5242
(lp5243
F13.007388773715057
aF11.740501295528498
aI0
abag2177
(g2201
g2179
Ntp5244
Rp5245
(lp5246
F0.0
aF0.0
aF-0.8819103366950038
aF0.4714171804575062
ababag2177
(g2193
g2179
Ntp5247
Rp5248
(lp5249
g2177
(g2197
g2179
Ntp5250
Rp5251
(lp5252
F12.998662502429564
aF11.727440196819767
aI0
abag2177
(g2201
g2179
Ntp5253
Rp5254
(lp5255
F0.0
aF0.0
aF-0.8692678648845411
aF0.49434135885951447
ababag2177
(g2193
g2179
Ntp5256
Rp5257
(lp5258
g2177
(g2197
g2179
Ntp5259
Rp5260
(lp5261
F12.99666192643964
aF11.724077176084581
aI0
abag2177
(g2201
g2179
Ntp5262
Rp5263
(lp5264
F0.0
aF0.0
aF-0.8660254037836398
aF0.5000000000013837
ababag2177
(g2193
g2179
Ntp5265
Rp5266
(lp5267
g2177
(g2197
g2179
Ntp5268
Rp5269
(lp5270
F12.9999997094
aF11.719999738
aI0
abag2177
(g2201
g2179
Ntp5271
Rp5272
(lp5273
F0.0
aF0.0
aF-0.8660254037836398
aF0.5000000000013837
ababag2177
(g2193
g2179
Ntp5274
Rp5275
(lp5276
g2177
(g2197
g2179
Ntp5277
Rp5278
(lp5279
F12.99214572776607
aF11.706396242768218
aI0
abag2177
(g2201
g2179
Ntp5280
Rp5281
(lp5282
F0.0
aF0.0
aF-0.878817112661203
aF0.4771587602610126
ababag2177
(g2193
g2179
Ntp5283
Rp5284
(lp5285
g2177
(g2197
g2179
Ntp5286
Rp5287
(lp5288
F12.99860161057996
aF11.71633743052389
aI0
abag2177
(g2201
g2179
Ntp5289
Rp5290
(lp5291
F0.0
aF0.0
aF-0.8692195583467558
aF0.4944262931797527
ababag2177
(g2193
g2179
Ntp5292
Rp5293
(lp5294
g2177
(g2197
g2179
Ntp5295
Rp5296
(lp5297
F12.845276026212442
aF11.458478428008254
aI0
abag2177
(g2201
g2179
Ntp5298
Rp5299
(lp5300
F0.0
aF0.0
aF-0.8692195583467558
aF0.4944262931797527
ababag2177
(g2193
g2179
Ntp5301
Rp5302
(lp5303
g2177
(g2197
g2179
Ntp5304
Rp5305
(lp5306
F12.691950441844925
aF11.200619425492617
aI0
abag2177
(g2201
g2179
Ntp5307
Rp5308
(lp5309
F0.0
aF0.0
aF-0.8692195583467558
aF0.4944262931797527
ababag2177
(g2193
g2179
Ntp5310
Rp5311
(lp5312
g2177
(g2197
g2179
Ntp5313
Rp5314
(lp5315
F12.538624857477407
aF10.94276042297698
aI0
abag2177
(g2201
g2179
Ntp5316
Rp5317
(lp5318
F0.0
aF0.0
aF-0.8692195583467558
aF0.4944262931797527
ababag2177
(g2193
g2179
Ntp5319
Rp5320
(lp5321
g2177
(g2197
g2179
Ntp5322
Rp5323
(lp5324
F12.38529927310989
aF10.684901420461342
aI0
abag2177
(g2201
g2179
Ntp5325
Rp5326
(lp5327
F0.0
aF0.0
aF-0.8692195583467558
aF0.4944262931797527
ababag2177
(g2193
g2179
Ntp5328
Rp5329
(lp5330
g2177
(g2197
g2179
Ntp5331
Rp5332
(lp5333
F12.231973688742372
aF10.427042417945707
aI0
abag2177
(g2201
g2179
Ntp5334
Rp5335
(lp5336
F0.0
aF0.0
aF-0.8692195583467558
aF0.4944262931797527
ababag2177
(g2193
g2179
Ntp5337
Rp5338
(lp5339
g2177
(g2197
g2179
Ntp5340
Rp5341
(lp5342
F12.078648104374855
aF10.16918341543007
aI0
abag2177
(g2201
g2179
Ntp5343
Rp5344
(lp5345
F0.0
aF0.0
aF-0.8692195583467558
aF0.4944262931797527
ababag2177
(g2193
g2179
Ntp5346
Rp5347
(lp5348
g2177
(g2197
g2179
Ntp5349
Rp5350
(lp5351
F11.925322520007338
aF9.911324412914432
aI0
abag2177
(g2201
g2179
Ntp5352
Rp5353
(lp5354
F0.0
aF0.0
aF-0.8692195583467558
aF0.4944262931797527
ababag2177
(g2193
g2179
Ntp5355
Rp5356
(lp5357
g2177
(g2197
g2179
Ntp5358
Rp5359
(lp5360
F11.77199693563982
aF9.653465410398795
aI0
abag2177
(g2201
g2179
Ntp5361
Rp5362
(lp5363
F0.0
aF0.0
aF-0.8692195583467558
aF0.4944262931797527
ababag2177
(g2193
g2179
Ntp5364
Rp5365
(lp5366
g2177
(g2197
g2179
Ntp5367
Rp5368
(lp5369
F11.618671351272303
aF9.395606407883157
aI0
abag2177
(g2201
g2179
Ntp5370
Rp5371
(lp5372
F0.0
aF0.0
aF-0.8692195583467558
aF0.4944262931797527
ababag2177
(g2193
g2179
Ntp5373
Rp5374
(lp5375
g2177
(g2197
g2179
Ntp5376
Rp5377
(lp5378
F11.465345766904784
aF9.13774740536752
aI0
abag2177
(g2201
g2179
Ntp5379
Rp5380
(lp5381
F0.0
aF0.0
aF-0.8692195583467558
aF0.4944262931797527
ababag2177
(g2193
g2179
Ntp5382
Rp5383
(lp5384
g2177
(g2197
g2179
Ntp5385
Rp5386
(lp5387
F11.312020182537267
aF8.879888402851885
aI0
abag2177
(g2201
g2179
Ntp5388
Rp5389
(lp5390
F0.0
aF0.0
aF-0.8692195583467558
aF0.4944262931797527
ababag2177
(g2193
g2179
Ntp5391
Rp5392
(lp5393
g2177
(g2197
g2179
Ntp5394
Rp5395
(lp5396
F11.158694598169749
aF8.622029400336247
aI0
abag2177
(g2201
g2179
Ntp5397
Rp5398
(lp5399
F0.0
aF0.0
aF-0.8692195583467558
aF0.4944262931797527
ababag2177
(g2193
g2179
Ntp5400
Rp5401
(lp5402
g2177
(g2197
g2179
Ntp5403
Rp5404
(lp5405
F11.005369013802232
aF8.36417039782061
aI0
abag2177
(g2201
g2179
Ntp5406
Rp5407
(lp5408
F0.0
aF0.0
aF-0.8692195583467558
aF0.4944262931797527
ababag2177
(g2193
g2179
Ntp5409
Rp5410
(lp5411
g2177
(g2197
g2179
Ntp5412
Rp5413
(lp5414
F10.852043429434715
aF8.106311395304974
aI0
abag2177
(g2201
g2179
Ntp5415
Rp5416
(lp5417
F0.0
aF0.0
aF-0.8692195583467558
aF0.4944262931797527
ababag2177
(g2193
g2179
Ntp5418
Rp5419
(lp5420
g2177
(g2197
g2179
Ntp5421
Rp5422
(lp5423
F10.802498897020309
aF8.022988682000586
aI0
abag2177
(g2201
g2179
Ntp5424
Rp5425
(lp5426
F0.0
aF0.0
aF-0.8692195583467558
aF0.4944262931797527
ababag2177
(g2193
g2179
Ntp5427
Rp5428
(lp5429
g2177
(g2197
g2179
Ntp5430
Rp5431
(lp5432
F10.794470788196037
aF8.009487216201167
aI0
abag2177
(g2201
g2179
Ntp5433
Rp5434
(lp5435
F0.0
aF0.0
aF-0.8559791269947336
aF0.5170103810846874
ababag2177
(g2193
g2179
Ntp5436
Rp5437
(lp5438
g2177
(g2197
g2179
Ntp5439
Rp5440
(lp5441
F10.799987416827177
aF8.019978757815547
aI0
abag2177
(g2201
g2179
Ntp5442
Rp5443
(lp5444
F0.0
aF0.0
aF-0.8660254037836398
aF0.5000000000013837
ababaaba.