(lp0
(lp1
cnumpy.core.multiarray
_reconstruct
p2
(cnumpy
ndarray
p3
(I0
tp4
S'b'
p5
tp6
Rp7
(I1
(I3
tp8
cnumpy
dtype
p9
(S'f8'
p10
I0
I1
tp11
Rp12
(I3
S'<'
p13
NNNI-1
I-1
I0
tp14
bI00
S"\x00\x00\xa0\xf6\xff\xffH@\x00\x00\x804\n\xd7'@\x12U\xd17=D\xc9\xbf"
p15
tp16
bag2
(g3
(I0
tp17
g5
tp18
Rp19
(I1
(I3
tp20
g12
I00
S"\xb5\xd2\xbd\xaf\xf8\x01I@\x84\xee\x82mv\xd5'@\x08P\xb0\xb4\xf7\xf7\xcf\xbf"
p21
tp22
bag2
(g3
(I0
tp23
g5
tp24
Rp25
(I1
(I3
tp26
g12
I00
S"\xed\x00\xb8u\x8a\x01I@\x0e\x83\x04\xe5\xe6\xd5'@\x0c\xae\x82\xc8\xc7|\xce\xbf"
p27
tp28
bag2
(g3
(I0
tp29
g5
tp30
Rp31
(I1
(I3
tp32
g12
I00
S"\x19\xea\xa9T\xdb&I@x\xf8Jv\xa9\xb1'@\x0c\xae\x82\xc8\xc7|\xce\xbf"
p33
tp34
bag2
(g3
(I0
tp35
g5
tp36
Rp37
(I1
(I3
tp38
g12
I00
S"F\xd3\x9b3,LI@\xe1m\x91\x07l\x8d'@\x0c\xae\x82\xc8\xc7|\xce\xbf"
p39
tp40
bag2
(g3
(I0
tp41
g5
tp42
Rp43
(I1
(I3
tp44
g12
I00
S"s\xbc\x8d\x12}qI@K\xe3\xd7\x98.i'@\x0c\xae\x82\xc8\xc7|\xce\xbf"
p45
tp46
bag2
(g3
(I0
tp47
g5
tp48
Rp49
(I1
(I3
tp50
g12
I00
S"\x9f\xa5\x7f\xf1\xcd\x96I@\xb5X\x1e*\xf1D'@\x0c\xae\x82\xc8\xc7|\xce\xbf"
p51
tp52
bag2
(g3
(I0
tp53
g5
tp54
Rp55
(I1
(I3
tp56
g12
I00
S"\xcc\x8eq\xd0\x1e\xbcI@\x1e\xced\xbb\xb3 '@\x0c\xae\x82\xc8\xc7|\xce\xbf"
p57
tp58
bag2
(g3
(I0
tp59
g5
tp60
Rp61
(I1
(I3
tp62
g12
I00
S'\xf9wc\xafo\xe1I@\x88C\xabLv\xfc&@\x0c\xae\x82\xc8\xc7|\xce\xbf'
p63
tp64
bag2
(g3
(I0
tp65
g5
tp66
Rp67
(I1
(I3
tp68
g12
I00
S'\x94\xf9\xcbo\xc0\xe3I@\xe8\xa1\x83\xa36\xfa&@\x0c\xae\x82\xc8\xc7|\xce\xbf'
p69
tp70
bag2
(g3
(I0
tp71
g5
tp72
Rp73
(I1
(I3
tp74
g12
I00
S'\x1f\x02\xb5\x9f\xb4\xe5I@gx\x9d\xdfP\xf8&@\x17\xb3\xa3K\r\xc9\xc7\xbf'
p75
tp76
bag2
(g3
(I0
tp77
g5
tp78
Rp79
(I1
(I3
tp80
g12
I00
S'\x91\x0f4{\xae\xe7I@2I.|\xd4\xf6&@ \xb8\xc4\xceR\x15\xc1\xbf'
p81
tp82
bag2
(g3
(I0
tp83
g5
tp84
Rp85
(I1
(I3
tp86
g12
I00
S'\x84(V\x9f\xac\xe9I@#\x1b\x1f\x84\xc2\xf5&@Vz\xcb\xa30\xc3\xb4\xbf'
p87
tp88
bag2
(g3
(I0
tp89
g5
tp90
Rp91
(I1
(I3
tp92
g12
I00
S'\x1c\xd7&\xa6\xad\xebI@\xf3\xdf\xac\xb7\x1b\xf5&@\xa8\x116\xa8\xeen\x9d\xbf'
p93
tp94
bag2
(g3
(I0
tp95
g5
tp96
Rp97
(I1
(I3
tp98
g12
I00
S"RT\xab'\xb0\xedI@\x96\x90\xe1\x8b\xe0\xf4&@\n\xc6\xc1>\xe5.\x98?"
p99
tp100
bag2
(g3
(I0
tp101
g5
tp102
Rp103
(I1
(I3
tp104
g12
I00
S'\xf6\x1e\xdf\xba\xb2\xefI@\x92\rB*\x11\xf5&@ngnI.s\xb3?'
p105
tp106
bag2
(g3
(I0
tp107
g5
tp108
Rp109
(I1
(I3
tp110
g12
I00
S'!M\xb1\xf6\xb3\xf1I@\xf1\xfc\xb0p\xad\xf5&@\xac.\x96\xa1Qm\xc0?'
p111
tp112
bag2
(g3
(I0
tp113
g5
tp114
Rp115
(I1
(I3
tp116
g12
I00
S'a\xe6\x01s\xb2\xf3I@@\xba\x86\xf1\xb4\xf6&@\xa2)u\x1e\x0c!\xc7?'
p117
tp118
bag2
(g3
(I0
tp119
g5
tp120
Rp121
(I1
(I3
tp122
g12
I00
S'\xd0\x94\x9e\xc9\xac\xf5I@\xd7G\xde\xf3&\xf8&@\x9a$T\x9b\xc6\xd4\xcd?'
p123
tp124
bag2
(g3
(I0
tp125
g5
tp126
Rp127
(I1
(I3
tp128
g12
I00
S'\xcd\xfb=\x97\xa1\xf7I@V\x0b\x17t\x02\xfa&@\xc8\x8f\x19\x8c@D\xd2?'
p129
tp130
bag2
(g3
(I0
tp131
g5
tp132
Rp133
(I1
(I3
tp134
g12
I00
S'\xfc\x03y|\x8f\xf9I@u\xfa\x8a$F\xfc&@C\r\x89\xca\x1d\x9e\xd5?'
p135
tp136
bag2
(g3
(I0
tp137
g5
tp138
Rp139
(I1
(I3
tp140
g12
I00
S'\x96m\xc1\x1eu\xfbI@&\xb8xn\xf0\xfe&@\xbd\x8a\xf8\x08\xfb\xf7\xd8?'
p141
tp142
bag2
(g3
(I0
tp143
g5
tp144
Rp145
(I1
(I3
tp146
g12
I00
S"\x1b\xfcT)Q\xfdI@\xe6\xfd s\xff\x01'@6\x08hG\xd8Q\xdc?"
p147
tp148
bag2
(g3
(I0
tp149
g5
tp150
Rp151
(I1
(I3
tp152
g12
I00
S'\xa7\x90,N"\xffI@\xea\x88\x16\rq\x05\'@\xb1\x85\xd7\x85\xb5\xab\xdf?'
p153
tp154
bag2
(g3
(I0
tp155
g5
tp156
Rp157
(I1
(I3
tp158
g12
I00
S"\x0c|\xfd\xf7\x1a\x00J@\x07l\x90\xce\x89\x07'@ms-8R\xc1\xe0?"
p159
tp160
bag2
(g3
(I0
tp161
g5
tp162
Rp163
(I1
(I3
tp164
g12
I00
S"\x00\x00@\xf6\xff\xffI@\x00\x00\x00h=\n'@gs-8R\xc1\xe0?"
p165
tp166
bag2
(g3
(I0
tp167
g5
tp168
Rp169
(I1
(I3
tp170
g12
I00
S"\xdb\x90\xa3\xb8\xbd\x01J@\xca\x85\xe4\xd7B\x0e'@%2e\xd7@n\xe2?"
p171
tp172
bag2
(g3
(I0
tp173
g5
tp174
Rp175
(I1
(I3
tp176
g12
I00
S"\xa1\x8d\x89fm\x03J@\xe8\xde\xc2/\xa4\x12'@\xe2\xf0\x9cv/\x1b\xe4?"
p177
tp178
bag2
(g3
(I0
tp179
g5
tp180
Rp181
(I1
(I3
tp182
g12
I00
S"3\x93\x0b\xd1\r\x05J@\x8d\x95\xc8\\^\x17'@\xa0\xaf\xd4\x15\x1e\xc8\xe5?"
p183
tp184
bag2
(g3
(I0
tp185
g5
tp186
Rp187
(I1
(I3
tp188
g12
I00
S"\x82\xf9\xf8\xd3\x9d\x06J@\x14;\xce\rn\x1c'@^n\x0c\xb5\x0cu\xe7?"
p189
tp190
bag2
(g3
(I0
tp191
g5
tp192
Rp193
(I1
(I3
tp194
g12
I00
S"\x90\xd9\xa3V\x1c\x08J@A=\xab\xb5\xcf!'@\x1a-DT\xfb!\xe9?"
p195
tp196
bag2
(g3
(I0
tp197
g5
tp198
Rp199
(I1
(I3
tp200
g12
I00
S"\xc1\xff\xa5L\x88\tJ@\x05\xd6\xb3\x8d\x7f''@\xd9\xeb{\xf3\xe9\xce\xea?"
p201
tp202
bag2
(g3
(I0
tp203
g5
tp204
Rp205
(I1
(I3
tp206
g12
I00
S"L@\x9d\xb6\xe0\nJ@=V_\x98y-'@\x97\xaa\xb3\x92\xd8{\xec?"
p207
tp208
bag2
(g3
(I0
tp209
g5
tp210
Rp211
(I1
(I3
tp212
g12
I00
S"\xae\xa9\xde\xa2$\x0cJ@y\xef\x14\xa4\xb93'@Si\xeb1\xc7(\xee?"
p213
tp214
bag2
(g3
(I0
tp215
g5
tp216
Rp217
(I1
(I3
tp218
g12
I00
S"W\x17 .S\rJ@\xbe\x05\x1dN;:'@\x11(#\xd1\xb5\xd5\xef?"
p219
tp220
bag2
(g3
(I0
tp221
g5
tp222
Rp223
(I1
(I3
tp224
g12
I00
S"\x9f\xad\x17\x84k\x0eJ@\xd8\xf8\xb4\x05\xfa@'@fs-8R\xc1\xf0?"
p225
tp226
bag2
(g3
(I0
tp227
g5
tp228
Rp229
(I1
(I3
tp230
g12
I00
S"\x11\xcf\x10\xe0l\x0fJ@D<C\x0f\xf1G'@\xc5R\xc9\x87\xc9\x97\xf1?"
p231
tp232
bag2
(g3
(I0
tp233
g5
tp234
Rp235
(I1
(I3
tp236
g12
I00
S'\x93"v\x8dV\x10J@p~\xa9\x87\x1bO\'@$2e\xd7@n\xf2?'
p237
tp238
bag2
(g3
(I0
tp239
g5
tp240
Rp241
(I1
(I3
tp242
g12
I00
S"\x82IP\xe8'\x11J@\xa4\x8a\xb2gtV'@\x82\x11\x01'\xb8D\xf3?"
p243
tp244
bag2
(g3
(I0
tp245
g5
tp246
Rp247
(I1
(I3
tp248
g12
I00
S"\xe7\xec\xb8]\xe0\x11J@\xaa}\x99\x87\xf6]'@\xe1\xf0\x9cv/\x1b\xf4?"
p249
tp250
bag2
(g3
(I0
tp251
g5
tp252
Rp253
(I1
(I3
tp254
g12
I00
S"\x06\xd1Al\x7f\x12J@n\xd3\xa7\xa2\x9ce'@@\xd08\xc6\xa6\xf1\xf4?"
p255
tp256
bag2
(g3
(I0
tp257
g5
tp258
Rp259
(I1
(I3
tp260
g12
I00
S"\xec\xa6O\xa4\x04\x13J@\xc9\xc3\xe7Zam'@\x9e\xaf\xd4\x15\x1e\xc8\xf5?"
p261
tp262
bag2
(g3
(I0
tp263
g5
tp264
Rp265
(I1
(I3
tp266
g12
I00
S"\xce4\x16\x1b\x0c\x13J@\xc4\x03\xe0\xd0\xedm'@\xac\x7f\xf4b\x13\xd7\xf5?"
p267
tp268
bag2
(g3
(I0
tp269
g5
tp270
Rp271
(I1
(I3
tp272
g12
I00
S'\x07\xf5\x06\xd5\xe4\x1aJ@+\rs\xbeI\x04(@\xac\x7f\xf4b\x13\xd7\xf5?'
p273
tp274
bag2
(g3
(I0
tp275
g5
tp276
Rp277
(I1
(I3
tp278
g12
I00
S'@\xb5\xf7\x8e\xbd"J@\x91\x16\x06\xac\xa5\x9a(@\xac\x7f\xf4b\x13\xd7\xf5?'
p279
tp280
bag2
(g3
(I0
tp281
g5
tp282
Rp283
(I1
(I3
tp284
g12
I00
S'yu\xe8H\x96*J@\xf8\x1f\x99\x99\x011)@\xac\x7f\xf4b\x13\xd7\xf5?'
p285
tp286
bag2
(g3
(I0
tp287
g5
tp288
Rp289
(I1
(I3
tp290
g12
I00
S'\xb25\xd9\x02o2J@_),\x87]\xc7)@\xac\x7f\xf4b\x13\xd7\xf5?'
p291
tp292
bag2
(g3
(I0
tp293
g5
tp294
Rp295
(I1
(I3
tp296
g12
I00
S'rd\x1f!18J@\xba(+\x1b\xb55*@\xac\x7f\xf4b\x13\xd7\xf5?'
p297
tp298
bag2
(g3
(I0
tp299
g5
tp300
Rp301
(I1
(I3
tp302
g12
I00
S'\xf2IYN\x9a8J@\x00\x8d\xec\x89\x94=*@\n_\x90\xb2\x8a\xad\xf6?'
p303
tp304
bag2
(g3
(I0
tp305
g5
tp306
Rp307
(I1
(I3
tp308
g12
I00
S'\xc3\x16\xfb\xf7\xe88J@\xb9z7:\x87E*@i>,\x02\x02\x84\xf7?'
p309
tp310
bag2
(g3
(I0
tp311
g5
tp312
Rp313
(I1
(I3
tp314
g12
I00
S'\xb1\xa7\xd2\xe6\x1c9J@\x82\x98Y\x98\x87M*@\xc8\x1d\xc8QyZ\xf8?'
p315
tp316
bag2
(g3
(I0
tp317
g5
tp318
Rp319
(I1
(I3
tp320
g12
I00
S'KIo\xf659J@\xb0b\x07\x07\x90U*@&\xfdc\xa1\xf00\xf9?'
p321
tp322
bag2
(g3
(I0
tp323
g5
tp324
Rp325
(I1
(I3
tp326
g12
I00
S'\xa7I;\x1549J@\x0b\xb0L\xe3\x9a]*@\x84\xdc\xff\xf0g\x07\xfa?'
p327
tp328
bag2
(g3
(I0
tp329
g5
tp330
Rp331
(I1
(I3
tp332
g12
I00
S'\x1aO\x88D\x179J@\r/\x81\x88\xa2e*@\xe4\xbb\x9b@\xdf\xdd\xfa?'
p333
tp334
bag2
(g3
(I0
tp335
g5
tp336
Rp337
(I1
(I3
tp338
g12
I00
S'Nk\x8e\x98\xdf8J@)\x15>T\xa1m*@D\x9b7\x90V\xb4\xfb?'
p339
tp340
bag2
(g3
(I0
tp341
g5
tp342
Rp343
(I1
(I3
tp344
g12
I00
S'U\xeb]8\x8d8J@\xd38R\xaa\x91u*@\xa2z\xd3\xdf\xcd\x8a\xfc?'
p345
tp346
bag2
(g3
(I0
tp347
g5
tp348
Rp349
(I1
(I3
tp350
g12
I00
S'\xa7\xee\xc3] 8J@$\xd0\xb1\xf8m}*@\x01Zo/Ea\xfd?'
p351
tp352
bag2
(g3
(I0
tp353
g5
tp354
Rp355
(I1
(I3
tp356
g12
I00
S'S\xd8!U\x997J@\xf5\x10_\xbb0\x85*@a9\x0b\x7f\xbc7\xfe?'
p357
tp358
bag2
(g3
(I0
tp359
g5
tp360
Rp361
(I1
(I3
tp362
g12
I00
S'\xcf\xb67}\xf86J@Z\xf4H\x80\xd4\x8c*@\xbf\x18\xa7\xce3\x0e\xff?'
p363
tp364
bag2
(g3
(I0
tp365
g5
tp366
Rp367
(I1
(I3
tp368
g12
I00
S'\x05\xc8\xe1F>6J@Af\x1d\xebS\x94*@\x1e\xf8B\x1e\xab\xe4\xff?'
p369
tp370
bag2
(g3
(I0
tp371
g5
tp372
Rp373
(I1
(I3
tp374
g12
I00
S'FH\xc94k5J@\xe82\x0c\xb9\xa9\x9b*@\xbek\xef6\x91]\x00@'
p375
tp376
bag2
(g3
(I0
tp377
g5
tp378
Rp379
(I1
(I3
tp380
g12
I00
S't\xd6:E\x904J@!r\x15\x0fQ\xa2*@is-8R\xc1\x00@'
p381
tp382
bag2
(g3
(I0
tp383
g5
tp384
Rp385
(I1
(I3
tp386
g12
I00
S'\x00\x00`)33J@\x00\x00@\x00\xd7\xa3*@fs-8R\xc1\x00@'
p387
tp388
bag2
(g3
(I0
tp389
g5
tp390
Rp391
(I1
(I3
tp392
g12
I00
S'\x8e\xdef\xcd12J@lC\xce\t\xce\xaa*@\x15c\xfb\xdf\x8d,\x01@'
p393
tp394
bag2
(g3
(I0
tp395
g5
tp396
Rp397
(I1
(I3
tp398
g12
I00
S'FHow\x191J@\x866f\xc1\x8c\xb1*@\xc5R\xc9\x87\xc9\x97\x01@'
p399
tp400
bag2
(g3
(I0
tp401
g5
tp402
Rp403
(I1
(I3
tp404
g12
I00
S'\x9d\xda-\xec\xea/J@\xccLnk\x0e\xb8*@tB\x97/\x05\x03\x02@'
p405
tp406
bag2
(g3
(I0
tp407
g5
tp408
Rp409
(I1
(I3
tp410
g12
I00
S';q\xec\xff\xa6.J@\x07\xe6#wN\xbe*@#2e\xd7@n\x02@'
p411
tp412
bag2
(g3
(I0
tp413
g5
tp414
Rp415
(I1
(I3
tp416
g12
I00
S'\xb00\xf5\x95N-J@@f\xcf\x81H\xc4*@\xd3!3\x7f|\xd9\x02@'
p417
tp418
bag2
(g3
(I0
tp419
g5
tp420
Rp421
(I1
(I3
tp422
g12
I00
S"\x7f\n\xf3\x9f\xe2+J@\x03\xff\xd7Y\xf8\xc9*@\x82\x11\x01'\xb8D\x03@"
p423
tp424
bag2
(g3
(I0
tp425
g5
tp426
Rp427
(I1
(I3
tp428
g12
I00
S'q*H\x1dd*J@0\x01\xb5\x01Z\xcf*@2\x01\xcf\xce\xf3\xaf\x03@'
p429
tp430
bag2
(g3
(I0
tp431
g5
tp432
Rp433
(I1
(I3
tp434
g12
I00
S'"\xc4Z\x1a\xd4(J@\xb8\xa6\xba\xb2i\xd4*@\xe1\xf0\x9cv/\x1b\x04@'
p435
tp436
bag2
(g3
(I0
tp437
g5
tp438
Rp439
(I1
(I3
tp440
g12
I00
S"\x90\xbe\xd8\xaf3'J@\\]\xc0\xdf#\xd9*@\x90\xe0j\x1ek\x86\x04@"
p441
tp442
bag2
(g3
(I0
tp443
g5
tp444
Rp445
(I1
(I3
tp446
g12
I00
S'\xca\xc1\xf2\x01\x84%J@z\xb6\x9e7\x85\xdd*@@\xd08\xc6\xa6\xf1\x04@'
p447
tp448
bag2
(g3
(I0
tp449
g5
tp450
Rp451
(I1
(I3
tp452
g12
I00
S'\xef0\x8f?\xc6#J@D<\x83\xa7\x8a\xe1*@\xef\xbf\x06n\xe2\\\x05@'
p453
tp454
bag2
(g3
(I0
tp455
g5
tp456
Rp457
(I1
(I3
tp458
g12
I00
S'd\xa0u\xa1\xfb!J@L\x8a\x18]1\xe5*@\x9e\xaf\xd4\x15\x1e\xc8\x05@'
p459
tp460
bag2
(g3
(I0
tp461
g5
tp462
Rp463
(I1
(I3
tp464
g12
I00
S'W]si% J@\x07&\x81\xc8v\xe8*@M\x9f\xa2\xbdY3\x06@'
p465
tp466
bag2
(g3
(I0
tp467
g5
tp468
Rp469
(I1
(I3
tp470
g12
I00
S'|:\x86\xeb\xf7\x1eJ@E\x97\xf7\xb5E\xea*@*\x16\x1dJ\xa1v\x06@'
p471
tp472
bag2
(g3
(I0
tp473
g5
tp474
Rp475
(I1
(I3
tp476
g12
I00
S'E\x1d\x11\xb1\xaf\xfaI@6JD\xf5\x93\x1c+@*\x16\x1dJ\xa1v\x06@'
p477
tp478
bag2
(g3
(I0
tp479
g5
tp480
Rp481
(I1
(I3
tp482
g12
I00
S"\x0e\x00\x9cvg\xd6I@'\xfd\x904\xe2N+@*\x16\x1dJ\xa1v\x06@"
p483
tp484
bag2
(g3
(I0
tp485
g5
tp486
Rp487
(I1
(I3
tp488
g12
I00
S'\xd7\xe2&<\x1f\xb2I@\x18\xb0\xdds0\x81+@*\x16\x1dJ\xa1v\x06@'
p489
tp490
bag2
(g3
(I0
tp491
g5
tp492
Rp493
(I1
(I3
tp494
g12
I00
S'\xa0\xc5\xb1\x01\xd7\x8dI@\tc*\xb3~\xb3+@*\x16\x1dJ\xa1v\x06@'
p495
tp496
bag2
(g3
(I0
tp497
g5
tp498
Rp499
(I1
(I3
tp500
g12
I00
S'j\xa8<\xc7\x8eiI@\xfa\x15w\xf2\xcc\xe5+@*\x16\x1dJ\xa1v\x06@'
p501
tp502
bag2
(g3
(I0
tp503
g5
tp504
Rp505
(I1
(I3
tp506
g12
I00
S'3\x8b\xc7\x8cFEI@\xeb\xc8\xc31\x1b\x18,@*\x16\x1dJ\xa1v\x06@'
p507
tp508
bag2
(g3
(I0
tp509
g5
tp510
Rp511
(I1
(I3
tp512
g12
I00
S'\xfcmRR\xfe I@\xdc{\x10qiJ,@*\x16\x1dJ\xa1v\x06@'
p513
tp514
bag2
(g3
(I0
tp515
g5
tp516
Rp517
(I1
(I3
tp518
g12
I00
S'\xc5P\xdd\x17\xb6\xfcH@\xcd.]\xb0\xb7|,@*\x16\x1dJ\xa1v\x06@'
p519
tp520
bag2
(g3
(I0
tp521
g5
tp522
Rp523
(I1
(I3
tp524
g12
I00
S'\x8e3h\xddm\xd8H@\xbe\xe1\xa9\xef\x05\xaf,@*\x16\x1dJ\xa1v\x06@'
p525
tp526
bag2
(g3
(I0
tp527
g5
tp528
Rp529
(I1
(I3
tp530
g12
I00
S'X\x16\xf3\xa2%\xb4H@\xaf\x94\xf6.T\xe1,@*\x16\x1dJ\xa1v\x06@'
p531
tp532
bag2
(g3
(I0
tp533
g5
tp534
Rp535
(I1
(I3
tp536
g12
I00
S'!\xf9}h\xdd\x8fH@\xa0GCn\xa2\x13-@*\x16\x1dJ\xa1v\x06@'
p537
tp538
bag2
(g3
(I0
tp539
g5
tp540
Rp541
(I1
(I3
tp542
g12
I00
S'\xea\xdb\x08.\x95kH@\x92\xfa\x8f\xad\xf0E-@*\x16\x1dJ\xa1v\x06@'
p543
tp544
bag2
(g3
(I0
tp545
g5
tp546
Rp547
(I1
(I3
tp548
g12
I00
S'\xb3\xbe\x93\xf3LGH@\x82\xad\xdc\xec>x-@*\x16\x1dJ\xa1v\x06@'
p549
tp550
bag2
(g3
(I0
tp551
g5
tp552
Rp553
(I1
(I3
tp554
g12
I00
S'|\xa1\x1e\xb9\x04#H@s`),\x8d\xaa-@*\x16\x1dJ\xa1v\x06@'
p555
tp556
bag2
(g3
(I0
tp557
g5
tp558
Rp559
(I1
(I3
tp560
g12
I00
S'F\x84\xa9~\xbc\xfeG@d\x13vk\xdb\xdc-@*\x16\x1dJ\xa1v\x06@'
p561
tp562
bag2
(g3
(I0
tp563
g5
tp564
Rp565
(I1
(I3
tp566
g12
I00
S'\x0fg4Dt\xdaG@U\xc6\xc2\xaa)\x0f.@*\x16\x1dJ\xa1v\x06@'
p567
tp568
bag2
(g3
(I0
tp569
g5
tp570
Rp571
(I1
(I3
tp572
g12
I00
S'\xd8I\xbf\t,\xb6G@Gy\x0f\xeawA.@*\x16\x1dJ\xa1v\x06@'
p573
tp574
bag2
(g3
(I0
tp575
g5
tp576
Rp577
(I1
(I3
tp578
g12
I00
S'\xa1,J\xcf\xe3\x91G@8,\\)\xc6s.@*\x16\x1dJ\xa1v\x06@'
p579
tp580
bag2
(g3
(I0
tp581
g5
tp582
Rp583
(I1
(I3
tp584
g12
I00
S'\xc6\x83\xbb\x0e\x9e\x8dG@\xd3\xaf\xb5\xa9\xb2y.@*\x16\x1dJ\xa1v\x06@'
p585
tp586
bag2
(g3
(I0
tp587
g5
tp588
Rp589
(I1
(I3
tp590
g12
I00
S'\x82\xec\x1f\xba\xb7\x8bG@\xe4\x94d\xf7T|.@{&O\xa2e\x0b\x06@'
p591
tp592
bag2
(g3
(I0
tp593
g5
tp594
Rp595
(I1
(I3
tp596
g12
I00
S"\xa5\x8c\xb8\xe2\xda\x89G@^\x00\xf0'\\\x7f.@\xcc6\x81\xfa)\xa0\x05@"
p597
tp598
bag2
(g3
(I0
tp599
g5
tp600
Rp601
(I1
(I3
tp602
g12
I00
S'$<\x1c\xd7\x08\x88G@v\xedh\x1b\xc6\x82.@\x1cG\xb3R\xee4\x05@'
p603
tp604
bag2
(g3
(I0
tp605
g5
tp606
Rp607
(I1
(I3
tp608
g12
I00
S'\xd6\x87N\xdeB\x86G@\xad\xdc\x93l\x90\x86.@mW\xe5\xaa\xb2\xc9\x04@'
p609
tp610
bag2
(g3
(I0
tp611
g5
tp612
Rp613
(I1
(I3
tp614
g12
I00
S'\x0e<\xda6\x8a\x84G@z\x1e\x97r\xb8\x8a.@\xbeg\x17\x03w^\x04@'
p615
tp616
bag2
(g3
(I0
tp617
g5
tp618
Rp619
(I1
(I3
tp620
g12
I00
S'\x05\xe1\xf1\x15\xe0\x82G@6\x90\xd8B;\x8f.@\x0fxI[;\xf3\x03@'
p621
tp622
bag2
(g3
(I0
tp623
g5
tp624
Rp625
(I1
(I3
tp626
g12
I00
S'\xd4\xc5\x96\xa6E\x81G@\xf4{\t\xb3\x15\x94.@_\x88{\xb3\xff\x87\x03@'
p627
tp628
bag2
(g3
(I0
tp629
g5
tp630
Rp631
(I1
(I3
tp632
g12
I00
S'F2\xc7\x08\xbc\x7fG@\xb5+_[D\x99.@\xb0\x98\xad\x0b\xc4\x1c\x03@'
p633
tp634
bag2
(g3
(I0
tp635
g5
tp636
Rp637
(I1
(I3
tp638
g12
I00
S'\xbdR\xb4PD~G@\x12\xa1\xf6\x98\xc3\x9e.@\x01\xa9\xdfc\x88\xb1\x02@'
p639
tp640
bag2
(g3
(I0
tp641
g5
tp642
Rp643
(I1
(I3
tp644
g12
I00
S'/\xf2\x82qt}G@-PK-$\xa2.@\x8c\x15\xf1\xac\x0es\x02@'
p645
tp646
bag2
(g3
(I0
tp647
g5
tp648
Rp649
(I1
(I3
tp650
g12
I00
S'\x00X\xe9\x15E}G@G\xbdm8\xad\xa1.@\x8d\x15\xf1\xac\x0es\x02@'
p651
tp652
bag2
(g3
(I0
tp653
g5
tp654
Rp655
(I1
(I3
tp656
g12
I00
S'P2}\xc6\xeb{G@\x06\x8e\xbb\x06\xa4\xa7.@=\x05\xbfTJ\xde\x02@'
p657
tp658
bag2
(g3
(I0
tp659
g5
tp660
Rp661
(I1
(I3
tp662
g12
I00
S'tD-\xf6~zG@\xaa\x0b\x80sP\xad.@\xed\xf4\x8c\xfc\x85I\x03@'
p663
tp664
bag2
(g3
(I0
tp665
g5
tp666
Rp667
(I1
(I3
tp668
g12
I00
S'\t\xe8\xf4\xa4\xffxG@\xc7\xae\x98\x83\xae\xb2.@\x9b\xe4Z\xa4\xc1\xb4\x03@'
p669
tp670
bag2
(g3
(I0
tp671
g5
tp672
Rp673
(I1
(I3
tp674
g12
I00
S'\xa6?\xcb\xdfnwG@\xb8\x12\xdfr\xba\xb7.@J\xd4(L\xfd\x1f\x04@'
p675
tp676
bag2
(g3
(I0
tp677
g5
tp678
Rp679
(I1
(I3
tp680
g12
I00
S'\xb8|\xe6\xbf\xcduG@\x82{\xcd\xb6p\xbc.@\xfa\xc3\xf6\xf38\x8b\x04@'
p681
tp682
bag2
(g3
(I0
tp683
g5
tp684
Rp685
(I1
(I3
tp686
g12
I00
S'\x8a\x8d\xf6i\x1dtG@\x1e\xec\xfa\x00\xce\xc0.@\xa9\xb3\xc4\x9bt\xf6\x04@'
p687
tp688
bag2
(g3
(I0
tp689
g5
tp690
Rp691
(I1
(I3
tp692
g12
I00
S'\xfe\xbdW\r_rG@\xc8\x0emA\xcf\xc4.@X\xa3\x92C\xb0a\x05@'
p693
tp694
bag2
(g3
(I0
tp695
g5
tp696
Rp697
(I1
(I3
tp698
g12
I00
S'\x02\xdb=\xe3\x93pG@\xabN\xbe\xa8q\xc8.@\x08\x93`\xeb\xeb\xcc\x05@'
p699
tp700
bag2
(g3
(I0
tp701
g5
tp702
Rp703
(I1
(I3
tp704
g12
I00
S'"n\xd8-\xbdnG@\xd2\xa0\x16\xaa\xb2\xcb.@\xb7\x82.\x93\'8\x06@'
p705
tp706
bag2
(g3
(I0
tp707
g5
tp708
Rp709
(I1
(I3
tp710
g12
I00
S'v\xabp7\xdclG@M\x9a\xf5\xfc\x8f\xce.@fr\xfc:c\xa3\x06@'
p711
tp712
bag2
(g3
(I0
tp713
g5
tp714
Rp715
(I1
(I3
tp716
g12
I00
S'\xd7\xa3\x13r\xdakG@(\xa3\xeaU\xdc\xcf.@\x87\xfae\x89\xcf\xdb\x06@'
p717
tp718
bag2
(g3
(I0
tp719
g5
tp720
Rp721
(I1
(I3
tp722
g12
I00
S'\xa4h\xca\x8d\xfeFG@u;.\x17\xf0\xfa.@\x87\xfae\x89\xcf\xdb\x06@'
p723
tp724
bag2
(g3
(I0
tp725
g5
tp726
Rp727
(I1
(I3
tp728
g12
I00
S'q-\x81\xa9""G@\xc3\xd3q\xd8\x03&/@\x87\xfae\x89\xcf\xdb\x06@'
p729
tp730
bag2
(g3
(I0
tp731
g5
tp732
Rp733
(I1
(I3
tp734
g12
I00
S'>\xf27\xc5F\xfdF@\x11l\xb5\x99\x17Q/@\x87\xfae\x89\xcf\xdb\x06@'
p735
tp736
bag2
(g3
(I0
tp737
g5
tp738
Rp739
(I1
(I3
tp740
g12
I00
S'\x0b\xb7\xee\xe0j\xd8F@_\x04\xf9Z+|/@\x87\xfae\x89\xcf\xdb\x06@'
p741
tp742
bag2
(g3
(I0
tp743
g5
tp744
Rp745
(I1
(I3
tp746
g12
I00
S'\xd8{\xa5\xfc\x8e\xb3F@\xad\x9c<\x1c?\xa7/@\x87\xfae\x89\xcf\xdb\x06@'
p747
tp748
bag2
(g3
(I0
tp749
g5
tp750
Rp751
(I1
(I3
tp752
g12
I00
S'\xa5@\\\x18\xb3\x8eF@\xfb4\x80\xddR\xd2/@\x87\xfae\x89\xcf\xdb\x06@'
p753
tp754
bag2
(g3
(I0
tp755
g5
tp756
Rp757
(I1
(I3
tp758
g12
I00
S'r\x05\x134\xd7iF@I\xcd\xc3\x9ef\xfd/@\x87\xfae\x89\xcf\xdb\x06@'
p759
tp760
bag2
(g3
(I0
tp761
g5
tp762
Rp763
(I1
(I3
tp764
g12
I00
S'?\xca\xc9O\xfbDF@\xcb\xb2\x030=\x140@\x87\xfae\x89\xcf\xdb\x06@'
p765
tp766
bag2
(g3
(I0
tp767
g5
tp768
Rp769
(I1
(I3
tp770
g12
I00
S'\x0c\x8f\x80k\x1f F@\xf2~\xa5\x10\xc7)0@\x87\xfae\x89\xcf\xdb\x06@'
p771
tp772
bag2
(g3
(I0
tp773
g5
tp774
Rp775
(I1
(I3
tp776
g12
I00
S'\xd9S7\x87C\xfbE@\x19KG\xf1P?0@\x87\xfae\x89\xcf\xdb\x06@'
p777
tp778
bag2
(g3
(I0
tp779
g5
tp780
Rp781
(I1
(I3
tp782
g12
I00
S'\xa6\x18\xee\xa2g\xd6E@@\x17\xe9\xd1\xdaT0@\x87\xfae\x89\xcf\xdb\x06@'
p783
tp784
bag2
(g3
(I0
tp785
g5
tp786
Rp787
(I1
(I3
tp788
g12
I00
S's\xdd\xa4\xbe\x8b\xb1E@g\xe3\x8a\xb2dj0@\x87\xfae\x89\xcf\xdb\x06@'
p789
tp790
bag2
(g3
(I0
tp791
g5
tp792
Rp793
(I1
(I3
tp794
g12
I00
S'@\xa2[\xda\xaf\x8cE@\x8e\xaf,\x93\xee\x7f0@\x87\xfae\x89\xcf\xdb\x06@'
p795
tp796
bag2
(g3
(I0
tp797
g5
tp798
Rp799
(I1
(I3
tp800
g12
I00
S'\rg\x12\xf6\xd3gE@\xb5{\xcesx\x950@\x87\xfae\x89\xcf\xdb\x06@'
p801
tp802
bag2
(g3
(I0
tp803
g5
tp804
Rp805
(I1
(I3
tp806
g12
I00
S'\xda+\xc9\x11\xf8BE@\xdcGpT\x02\xab0@\x87\xfae\x89\xcf\xdb\x06@'
p807
tp808
bag2
(g3
(I0
tp809
g5
tp810
Rp811
(I1
(I3
tp812
g12
I00
S'\xa7\xf0\x7f-\x1c\x1eE@\x02\x14\x125\x8c\xc00@\x87\xfae\x89\xcf\xdb\x06@'
p813
tp814
bag2
(g3
(I0
tp815
g5
tp816
Rp817
(I1
(I3
tp818
g12
I00
S't\xb56I@\xf9D@)\xe0\xb3\x15\x16\xd60@\x87\xfae\x89\xcf\xdb\x06@'
p819
tp820
bag2
(g3
(I0
tp821
g5
tp822
Rp823
(I1
(I3
tp824
g12
I00
S'Az\xeddd\xd4D@P\xacU\xf6\x9f\xeb0@\x87\xfae\x89\xcf\xdb\x06@'
p825
tp826
bag2
(g3
(I0
tp827
g5
tp828
Rp829
(I1
(I3
tp830
g12
I00
S'\x0e?\xa4\x80\x88\xafD@wx\xf7\xd6)\x011@\x87\xfae\x89\xcf\xdb\x06@'
p831
tp832
bag2
(g3
(I0
tp833
g5
tp834
Rp835
(I1
(I3
tp836
g12
I00
S'\xdb\x03[\x9c\xac\x8aD@\x9eD\x99\xb7\xb3\x161@\x87\xfae\x89\xcf\xdb\x06@'
p837
tp838
bag2
(g3
(I0
tp839
g5
tp840
Rp841
(I1
(I3
tp842
g12
I00
S'\xdf\xbb(\x14\x93qD@\x956\x87|^%1@\x87\xfae\x89\xcf\xdb\x06@'
p843
tp844
bag2
(g3
(I0
tp845
g5
tp846
Rp847
(I1
(I3
tp848
g12
I00
S'\xbb\x91@\x04\xa5oD@\xecK@1\x7f&1@\xd8\n\x98\xe1\x93p\x06@'
p849
tp850
bag2
(g3
(I0
tp851
g5
tp852
Rp853
(I1
(I3
tp854
g12
I00
S'KX]\xe2\xc8oD@\xfd\xb7\xd6\x16f&1@S\xdfv\x91~x\x06@'
p855
tp856
bag2
(g3
(I0
tp857
g5
tp858
Rp859
(I1
(I3
tp860
g12
I00
S'\x00X\xb2\x87\x82oD@\xc0\xa5(N\x9a%1@T\xdfv\x91~x\x06@'
p861
tp862
bag2
(g3
(I0
tp863
g5
tp864
Rp865
(I1
(I3
tp866
g12
I00
S'x\xc0\xda\x0b\x9cmD@\x0e&J\x92\xea&1@\x03\xcfD9\xba\xe3\x06@'
p867
tp868
bag2
(g3
(I0
tp869
g5
tp870
Rp871
(I1
(I3
tp872
g12
I00
S'\xa6\xce\nn\xadkD@A*\x9ft\x07(1@\xb3\xbe\x12\xe1\xf5N\x07@'
p873
tp874
bag2
(g3
(I0
tp875
g5
tp876
Rp877
(I1
(I3
tp878
g12
I00
S'\xa5FR\t\xb8iD@v\x12B-\xf0(1@b\xae\xe0\x881\xba\x07@'
p879
tp880
bag2
(g3
(I0
tp881
g5
tp882
Rp883
(I1
(I3
tp884
g12
I00
S'\x87E\x82=\xbdgD@\x16>\xe7\x18\xa4)1@\x11\x9e\xae0m%\x08@'
p885
tp886
bag2
(g3
(I0
tp887
g5
tp888
Rp889
(I1
(I3
tp890
g12
I00
S'\x9ad6n\xbeeD@\x8a\xa0O\xb9"*1@\xc1\x8d|\xd8\xa8\x90\x08@'
p891
tp892
bag2
(g3
(I0
tp893
g5
tp894
Rp895
(I1
(I3
tp896
g12
I00
S'\xb73\xdb\x01\xbdcD@\xcaV\xa1\xb5k*1@p}J\x80\xe4\xfb\x08@'
p897
tp898
bag2
(g3
(I0
tp899
g5
tp900
Rp901
(I1
(I3
tp902
g12
I00
S'\xac\xb9\xb2`\xbaaD@\xab\xff\xa5\xda~*1@\x10\xedo\x80\xd6\xdc\x08\xc0'
p903
tp904
bag2
(g3
(I0
tp905
g5
tp906
Rp907
(I1
(I3
tp908
g12
I00
S'?\xab\xd7\xf3\xb7_D@$\xab\xee\x1a\\*1@a\xfd\xa1\xd8\x9aq\x08\xc0'
p909
tp910
bag2
(g3
(I0
tp911
g5
tp912
Rp913
(I1
(I3
tp914
g12
I00
S'%\n@$\xb7]D@QG\xdd\x8e\x03*1@\xb2\r\xd40_\x06\x08\xc0'
p915
tp916
bag2
(g3
(I0
tp917
g5
tp918
Rp919
(I1
(I3
tp920
g12
I00
S'\xbd\xdd\xbfY\xb9[D@\xa4\x84\x93tu)1@\x02\x1e\x06\x89#\x9b\x07\xc0'
p921
tp922
bag2
(g3
(I0
tp923
g5
tp924
Rp925
(I1
(I3
tp926
g12
I00
S';\xb7\x0c\xfa\xbfYD@5=\xc7/\xb2(1@S.8\xe1\xe7/\x07\xc0'
p927
tp928
bag2
(g3
(I0
tp929
g5
tp930
Rp931
(I1
(I3
tp932
g12
I00
S"\x80\xb2\xc2g\xccWD@\xd5}|I\xba'1@\xa4>j9\xac\xc4\x06\xc0"
p933
tp934
bag2
(g3
(I0
tp935
g5
tp936
Rp937
(I1
(I3
tp938
g12
I00
S'\xab\xa3k\x01\xe0UD@\xf3a\xa5o\x8e&1@\xf5N\x9c\x91pY\x06\xc0'
p939
tp940
bag2
(g3
(I0
tp941
g5
tp942
Rp943
(I1
(I3
tp944
g12
I00
S'\x06 \x89 \xfcSD@\xcf\x05\xa8t/%1@F_\xce\xe94\xee\x05\xc0'
p945
tp946
bag2
(g3
(I0
tp947
g5
tp948
Rp949
(I1
(I3
tp950
g12
I00
S'\xe0\x0e\xa2\x18"RD@\x9a\xe4\xcaN\x9e#1@\x96o\x00B\xf9\x82\x05\xc0'
p951
tp952
bag2
(g3
(I0
tp953
g5
tp954
Rp955
(I1
(I3
tp956
g12
I00
S'tlT6SPD@ \n\x88\x17\xdc!1@\xe7\x7f2\x9a\xbd\x17\x05\xc0'
p957
tp958
bag2
(g3
(I0
tp959
g5
tp960
Rp961
(I1
(I3
tp962
g12
I00
S'\x06\xe6k\xbe\x90ND@6\x91\xc7\n\xea\x1f1@8\x90d\xf2\x81\xac\x04\xc0'
p963
tp964
bag2
(g3
(I0
tp965
g5
tp966
Rp967
(I1
(I3
tp968
g12
I00
S'!iq%\xfbMD@\xe6\xb9i\x8f/\x1f1@\xec\x8aL\x8c\xc8\x87\x04\xc0'
p969
tp970
bag2
(g3
(I0
tp971
g5
tp972
Rp973
(I1
(I3
tp974
g12
I00
S'\xd0\xd9\xd1\x1c\xc3-D@\xbf\xebV\x83f\xf50@\xec\x8aL\x8c\xc8\x87\x04\xc0'
p975
tp976
bag2
(g3
(I0
tp977
g5
tp978
Rp979
(I1
(I3
tp980
g12
I00
S'\x7fJ2\x14\x8b\rD@\x98\x1dDw\x9d\xcb0@\xec\x8aL\x8c\xc8\x87\x04\xc0'
p981
tp982
bag2
(g3
(I0
tp983
g5
tp984
Rp985
(I1
(I3
tp986
g12
I00
S'\x10I\x04\x8a\x99\x01D@\x99\xac%\x14 \xbc0@\xec\x8aL\x8c\xc8\x87\x04\xc0'
p987
tp988
bag2
(g3
(I0
tp989
g5
tp990
Rp991
(I1
(I3
tp992
g12
I00
S'E\xe4O\xac\xe9\xffC@\x89\xff\x8c\xfb\xef\xb90@\x9bz\x1a4\x04\xf3\x04\xc0'
p993
tp994
bag2
(g3
(I0
tp995
g5
tp996
Rp997
(I1
(I3
tp998
g12
I00
S'\xcc\xb2kY\xef\xffC@\xdf\xdd\xdf\x86\xf6\xb90@B\xd08\xc6\xa6\xf1\x04\xc0'
p999
tp1000
bag2
(g3
(I0
tp1001
g5
tp1002
Rp1003
(I1
(I3
tp1004
g12
I00
S'\x00\x00\x80\xf8\xff\xffC@\x00\x00@\xe5Q\xb80@?\xd08\xc6\xa6\xf1\x04\xc0'
p1005
tp1006
bag2
(g3
(I0
tp1007
g5
tp1008
Rp1009
(I1
(I3
tp1010
g12
I00
S'%o\x1c6B\xfeC@\x1b\xbdM-O\xb60@\xee\xbf\x06n\xe2\\\x05\xc0'
p1011
tp1012
bag2
(g3
(I0
tp1013
g5
tp1014
Rp1015
(I1
(I3
tp1016
g12
I00
S'\x9a\xde\x02\x98w\xfcC@\x17\x16\x83\xd2{\xb40@\x9e\xaf\xd4\x15\x1e\xc8\x05\xc0'
p1017
tp1018
bag2
(g3
(I0
tp1019
g5
tp1020
Rp1021
(I1
(I3
tp1022
g12
I00
S'\x8d\x9b\x00`\xa1\xfaC@:\xc8\xce\x1c\xd9\xb20@M\x9f\xa2\xbdY3\x06\xc0'
p1023
tp1024
bag2
(g3
(I0
tp1025
g5
tp1026
Rp1027
(I1
(I3
tp1028
g12
I00
S'\xa9\x02V\x16\xd8\xf8C@\xf6\xa85\nz\xb10@T\x91\xc4\x8de\x99\x06\xc0'
p1029
tp1030
bag2
(g3
(I0
tp1031
g5
tp1032
Rp1033
(I1
(I3
tp1034
g12
I00
S'N\xe2{\x8bZ\xd4C@\x0ep\\.\x8f\x990@T\x91\xc4\x8de\x99\x06\xc0'
p1035
tp1036
bag2
(g3
(I0
tp1037
g5
tp1038
Rp1039
(I1
(I3
tp1040
g12
I00
S'\xf4\xc1\xa1\x00\xdd\xafC@&7\x83R\xa4\x810@T\x91\xc4\x8de\x99\x06\xc0'
p1041
tp1042
bag2
(g3
(I0
tp1043
g5
tp1044
Rp1045
(I1
(I3
tp1046
g12
I00
S'\x99\xa1\xc7u_\x8bC@?\xfe\xa9v\xb9i0@T\x91\xc4\x8de\x99\x06\xc0'
p1047
tp1048
bag2
(g3
(I0
tp1049
g5
tp1050
Rp1051
(I1
(I3
tp1052
g12
I00
S'>\x81\xed\xea\xe1fC@W\xc5\xd0\x9a\xceQ0@T\x91\xc4\x8de\x99\x06\xc0'
p1053
tp1054
bag2
(g3
(I0
tp1055
g5
tp1056
Rp1057
(I1
(I3
tp1058
g12
I00
S'\xe4`\x13`dBC@o\x8c\xf7\xbe\xe390@T\x91\xc4\x8de\x99\x06\xc0'
p1059
tp1060
bag2
(g3
(I0
tp1061
g5
tp1062
Rp1063
(I1
(I3
tp1064
g12
I00
S'\x89@9\xd5\xe6\x1dC@\x87S\x1e\xe3\xf8!0@T\x91\xc4\x8de\x99\x06\xc0'
p1065
tp1066
bag2
(g3
(I0
tp1067
g5
tp1068
Rp1069
(I1
(I3
tp1070
g12
I00
S'. _Ji\xf9B@\xa0\x1aE\x07\x0e\n0@T\x91\xc4\x8de\x99\x06\xc0'
p1071
tp1072
bag2
(g3
(I0
tp1073
g5
tp1074
Rp1075
(I1
(I3
tp1076
g12
I00
S'\xd3\xff\x84\xbf\xeb\xd4B@p\xc3\xd7VF\xe4/@T\x91\xc4\x8de\x99\x06\xc0'
p1077
tp1078
bag2
(g3
(I0
tp1079
g5
tp1080
Rp1081
(I1
(I3
tp1082
g12
I00
S'(0#n \xd4B@G8\xec\xcf;\xe3/@T\x91\xc4\x8de\x99\x06\xc0'
p1083
tp1084
bag2
(g3
(I0
tp1085
g5
tp1086
Rp1087
(I1
(I3
tp1088
g12
I00
S'\xa5\xc2\xe6N7\xd2B@\x19\xbe\xbf\xa0\xba\xe0/@\xa5\xa1\xf6\xe5).\x06\xc0'
p1089
tp1090
bag2
(g3
(I0
tp1091
g5
tp1092
Rp1093
(I1
(I3
tp1094
g12
I00
S'\xb1}\xea>W\xd0B@\x94\xc6}\xed\xd3\xdd/@\xf5\xb1(>\xee\xc2\x05\xc0'
p1095
tp1096
bag2
(g3
(I0
tp1097
g5
tp1098
Rp1099
(I1
(I3
tp1100
g12
I00
S'\x88\xd0\x07\x8f\x81\xceB@jGI\xbf\x89\xda/@F\xc2Z\x96\xb2W\x05\xc0'
p1101
tp1102
bag2
(g3
(I0
tp1103
g5
tp1104
Rp1105
(I1
(I3
tp1106
g12
I00
S'\xb2\x02m\xb0\xcd\xccB@\x15\xdf\xdc\xd4\x0b\xd7/@?\xd08\xc6\xa6\xf1\x04\xc0'
p1107
tp1108
bag2
(g3
(I0
tp1109
g5
tp1110
Rp1111
(I1
(I3
tp1112
g12
I00
S'\x00\x00\xc0\xc5\xcc\xccB@\x00\x00\x801\n\xd7/@?\xd08\xc6\xa6\xf1\x04\xc0'
p1113
tp1114
bag2
(g3
(I0
tp1115
g5
tp1116
Rp1117
(I1
(I3
tp1118
g12
I00
S'%o\\\x03\x0f\xcbB@6z\x9b\xc1\x04\xd3/@\xee\xbf\x06n\xe2\\\x05\xc0'
p1119
tp1120
bag2
(g3
(I0
tp1121
g5
tp1122
Rp1123
(I1
(I3
tp1124
g12
I00
S'\x9a\xdeBeD\xc9B@/,\x06\x0c^\xcf/@\x9e\xaf\xd4\x15\x1e\xc8\x05\xc0'
p1125
tp1126
bag2
(g3
(I0
tp1127
g5
tp1128
Rp1129
(I1
(I3
tp1130
g12
I00
S'\x8d\x9b@-n\xc7B@s\x90\x9d\xa0\x18\xcc/@M\x9f\xa2\xbdY3\x06\xc0'
p1131
tp1132
bag2
(g3
(I0
tp1133
g5
tp1134
Rp1135
(I1
(I3
tp1136
g12
I00
S'e\xf9\x8fA9\xc7B@\xa2R\xbb^\xc7\xcb/@Dfs\xfa(?\x06\xc0'
p1137
tp1138
bag2
(g3
(I0
tp1139
g5
tp1140
Rp1141
(I1
(I3
tp1142
g12
I00
S'\xc4?\x1c\xa0K\xa3B@C\xc3D\xaf\x8f\x95/@Dfs\xfa(?\x06\xc0'
p1143
tp1144
bag2
(g3
(I0
tp1145
g5
tp1146
Rp1147
(I1
(I3
tp1148
g12
I00
S'"\x86\xa8\xfe]\x7fB@\xe43\xce\xffW_/@Dfs\xfa(?\x06\xc0'
p1149
tp1150
bag2
(g3
(I0
tp1151
g5
tp1152
Rp1153
(I1
(I3
tp1154
g12
I00
S'\x80\xcc4]p[B@\x85\xa4WP )/@Dfs\xfa(?\x06\xc0'
p1155
tp1156
bag2
(g3
(I0
tp1157
g5
tp1158
Rp1159
(I1
(I3
tp1160
g12
I00
S'\xde\x12\xc1\xbb\x827B@&\x15\xe1\xa0\xe8\xf2.@Dfs\xfa(?\x06\xc0'
p1161
tp1162
bag2
(g3
(I0
tp1163
g5
tp1164
Rp1165
(I1
(I3
tp1166
g12
I00
S'=YM\x1a\x95\x13B@\xc7\x85j\xf1\xb0\xbc.@Dfs\xfa(?\x06\xc0'
p1167
tp1168
bag2
(g3
(I0
tp1169
g5
tp1170
Rp1171
(I1
(I3
tp1172
g12
I00
S'\x9b\x9f\xd9x\xa7\xefA@h\xf6\xf3Ay\x86.@Dfs\xfa(?\x06\xc0'
p1173
tp1174
bag2
(g3
(I0
tp1175
g5
tp1176
Rp1177
(I1
(I3
tp1178
g12
I00
S'\xf9\xe5e\xd7\xb9\xcbA@\tg}\x92AP.@Dfs\xfa(?\x06\xc0'
p1179
tp1180
bag2
(g3
(I0
tp1181
g5
tp1182
Rp1183
(I1
(I3
tp1184
g12
I00
S'W,\xf25\xcc\xa7A@\xaa\xd7\x06\xe3\t\x1a.@Dfs\xfa(?\x06\xc0'
p1185
tp1186
bag2
(g3
(I0
tp1187
g5
tp1188
Rp1189
(I1
(I3
tp1190
g12
I00
S'\xb6r~\x94\xde\x83A@JH\x903\xd2\xe3-@Dfs\xfa(?\x06\xc0'
p1191
tp1192
bag2
(g3
(I0
tp1193
g5
tp1194
Rp1195
(I1
(I3
tp1196
g12
I00
S'\x14\xb9\n\xf3\xf0_A@\xeb\xb8\x19\x84\x9a\xad-@Dfs\xfa(?\x06\xc0'
p1197
tp1198
bag2
(g3
(I0
tp1199
g5
tp1200
Rp1201
(I1
(I3
tp1202
g12
I00
S'r\xff\x96Q\x03<A@\x8c)\xa3\xd4bw-@Dfs\xfa(?\x06\xc0'
p1203
tp1204
bag2
(g3
(I0
tp1205
g5
tp1206
Rp1207
(I1
(I3
tp1208
g12
I00
S'\xd0E#\xb0\x15\x18A@-\x9a,%+A-@Dfs\xfa(?\x06\xc0'
p1209
tp1210
bag2
(g3
(I0
tp1211
g5
tp1212
Rp1213
(I1
(I3
tp1214
g12
I00
S'/\x8c\xaf\x0e(\xf4@@\xce\n\xb6u\xf3\n-@Dfs\xfa(?\x06\xc0'
p1215
tp1216
bag2
(g3
(I0
tp1217
g5
tp1218
Rp1219
(I1
(I3
tp1220
g12
I00
S'\x8d\xd2;m:\xd0@@o{?\xc6\xbb\xd4,@Dfs\xfa(?\x06\xc0'
p1221
tp1222
bag2
(g3
(I0
tp1223
g5
tp1224
Rp1225
(I1
(I3
tp1226
g12
I00
S'\xeb\x18\xc8\xcbL\xac@@\x10\xec\xc8\x16\x84\x9e,@Dfs\xfa(?\x06\xc0'
p1227
tp1228
bag2
(g3
(I0
tp1229
g5
tp1230
Rp1231
(I1
(I3
tp1232
g12
I00
S'J_T*_\x88@@\xb1\\RgLh,@Dfs\xfa(?\x06\xc0'
p1233
tp1234
bag2
(g3
(I0
tp1235
g5
tp1236
Rp1237
(I1
(I3
tp1238
g12
I00
S'\xa8\xa5\xe0\x88qd@@R\xcd\xdb\xb7\x142,@Dfs\xfa(?\x06\xc0'
p1239
tp1240
bag2
(g3
(I0
tp1241
g5
tp1242
Rp1243
(I1
(I3
tp1244
g12
I00
S'\x06\xecl\xe7\x83@@@\xf3=e\x08\xdd\xfb+@Dfs\xfa(?\x06\xc0'
p1245
tp1246
bag2
(g3
(I0
tp1247
g5
tp1248
Rp1249
(I1
(I3
tp1250
g12
I00
S'd2\xf9E\x96\x1c@@\x94\xae\xeeX\xa5\xc5+@Dfs\xfa(?\x06\xc0'
p1251
tp1252
bag2
(g3
(I0
tp1253
g5
tp1254
Rp1255
(I1
(I3
tp1256
g12
I00
S'\x86\xf1\nIQ\xf1?@5\x1fx\xa9m\x8f+@Dfs\xfa(?\x06\xc0'
p1257
tp1258
bag2
(g3
(I0
tp1259
g5
tp1260
Rp1261
(I1
(I3
tp1262
g12
I00
S'B~#\x06v\xa9?@\xd6\x8f\x01\xfa5Y+@Dfs\xfa(?\x06\xc0'
p1263
tp1264
bag2
(g3
(I0
tp1265
g5
tp1266
Rp1267
(I1
(I3
tp1268
g12
I00
S'\x1e\x1fQB\xe9\x8d?@\xed|"}lD+@Dfs\xfa(?\x06\xc0'
p1269
tp1270
bag2
(g3
(I0
tp1271
g5
tp1272
Rp1273
(I1
(I3
tp1274
g12
I00
S'>\xff\xdd\x15&\x8a?@\x0b\xbf\x0b\xc0\x95A+@\xf4UA\xa2d\xaa\x06\xc0'
p1275
tp1276
bag2
(g3
(I0
tp1277
g5
tp1278
Rp1279
(I1
(I3
tp1280
g12
I00
S'\x14\xa2\xe96Q\x86?@\x06\xa0"\xd3$?+@\xa3E\x0fJ\xa0\x15\x07\xc0'
p1281
tp1282
bag2
(g3
(I0
tp1283
g5
tp1284
Rp1285
(I1
(I3
tp1286
g12
I00
S"\x17\x80\xb5Um\x82?@'>\xe6l\x1b=+@S5\xdd\xf1\xdb\x80\x07\xc0"
p1287
tp1288
bag2
(g3
(I0
tp1289
g5
tp1290
Rp1291
(I1
(I3
tp1292
g12
I00
S'\x98U\xc7A<\x80?@\x95\x1e\xa3\xa83<+@\xcf\xb8\x95\xcf\x89\xbc\x07\xc0'
p1293
tp1294
bag2
(g3
(I0
tp1295
g5
tp1296
Rp1297
(I1
(I3
tp1298
g12
I00
S'\x00\x000\xf4\xff\x7f?@\x00\x00\xa0\x99p=+@\xd0\xb8\x95\xcf\x89\xbc\x07\xc0'
p1299
tp1300
bag2
(g3
(I0
tp1301
g5
tp1302
Rp1303
(I1
(I3
tp1304
g12
I00
S"\xd5H\xff'\n|?@\x08\xea\x91\x14\x0b<+@!\xc9\xc7'NQ\x07\xc0"
p1305
tp1306
bag2
(g3
(I0
tp1307
g5
tp1308
Rp1309
(I1
(I3
tp1310
g12
I00
S'\xcd\x1b\xd3\xa72~?@\xd6\xf4{0\n=+@\x86\xa1x\x04_\x8c\x07\xc0'
p1311
tp1312
bag2
(g3
(I0
tp1313
g5
tp1314
Rp1315
(I1
(I3
tp1316
g12
I00
S'\x02\x9f\xc10\xe62?@\x0e\xd4*G\xd1\x1e+@\x86\xa1x\x04_\x8c\x07\xc0'
p1317
tp1318
bag2
(g3
(I0
tp1319
g5
tp1320
Rp1321
(I1
(I3
tp1322
g12
I00
S'\x84\x9d\xfd\xe0\x11\x03?@\x12 \xe6\xd4\x9e\x0b+@\x86\xa1x\x04_\x8c\x07\xc0'
p1323
tp1324
bag2
(g3
(I0
tp1325
g5
tp1326
Rp1327
(I1
(I3
tp1328
g12
I00
S'\xf1\xb6\xc5\x90 \xff>@B\xdcW\xba\t\n+@5\x91F\xac\x9a\xf7\x07\xc0'
p1329
tp1330
bag2
(g3
(I0
tp1331
g5
tp1332
Rp1333
(I1
(I3
tp1334
g12
I00
S'\xa6:\x89\x14\xfe\xff>@\t\xcc\x02\xbcJ\n+@\n^\xda\\H\xe0\x07\xc0'
p1335
tp1336
bag2
(g3
(I0
tp1337
g5
tp1338
Rp1339
(I1
(I3
tp1340
g12
I00
S'\x00\x00`\xf4\xff\xff>@\x00\x00\x80f=\n+@\n^\xda\\H\xe0\x07\xc0'
p1341
tp1342
bag2
(g3
(I0
tp1343
g5
tp1344
Rp1345
(I1
(I3
tp1346
g12
I00
S'q\xe6\x0b1\x07\xfc>@6\xa6NR\xfb\x08+@\xb9M\xa8\x04\x84K\x08\xc0'
p1347
tp1348
bag2
(g3
(I0
tp1349
g5
tp1350
Rp1351
(I1
(I3
tp1352
g12
I00
S'B\xbd\xd4d\x07\xf8>@H\xb0M\x1c$\x08+@i=v\xac\xbf\xb6\x08\xc0'
p1353
tp1354
bag2
(g3
(I0
tp1355
g5
tp1356
Rp1357
(I1
(I3
tp1358
g12
I00
S'\xae\xe9\x1a^\x03\xf4>@5a\x7f[\xb8\x07+@\x18-DT\xfb!\t@'
p1359
tp1360
bag2
(g3
(I0
tp1361
g5
tp1362
Rp1363
(I1
(I3
tp1364
g12
I00
S'\xfc\xce\xd9\x02N\xf3>@5a\x7f[\xb8\x07+@\x8c\xba&(\x17\x0f\t@'
p1365
tp1366
bag2
(g3
(I0
tp1367
g5
tp1368
Rp1369
(I1
(I3
tp1370
g12
I00
S'U\x90-\x0c\x82\xa6>@\x07~\xb0\x10#\t+@\x8c\xba&(\x17\x0f\t@'
p1371
tp1372
bag2
(g3
(I0
tp1373
g5
tp1374
Rp1375
(I1
(I3
tp1376
g12
I00
S'[\xbeSL\xd4m>@\x875\xa2\xc1.\n+@\x8c\xba&(\x17\x0f\t@'
p1377
tp1378
bag2
(g3
(I0
tp1379
g5
tp1380
Rp1381
(I1
(I3
tp1382
g12
I00
S'\xbah\xa5\xe7\xcei>@\xb2Vj\xbfA\n+@\xf4\xaf\x93\xd8\xa3\xc9\x08\xc0'
p1383
tp1384
bag2
(g3
(I0
tp1385
g5
tp1386
Rp1387
(I1
(I3
tp1388
g12
I00
S'j\xeeh\x10lf>@\x08\xa6\xfa\xea\xf6\t+@\xf4\xf2\xec\x91Bo\x08\xc0'
p1389
tp1390
bag2
(g3
(I0
tp1391
g5
tp1392
Rp1393
(I1
(I3
tp1394
g12
I00
S'\x00\x00\x00[ff>@\x00\x00\x80f=\n+@\xf3\xf2\xec\x91Bo\x08\xc0'
p1395
tp1396
bag2
(g3
(I0
tp1397
g5
tp1398
Rp1399
(I1
(I3
tp1400
g12
I00
S'U\xe3\xf0\xd5db>@\xf8\xc4*\xf5\x89\t+@\xa2\xe2\xba9~\xda\x08\xc0'
p1401
tp1402
bag2
(g3
(I0
tp1403
g5
tp1404
Rp1405
(I1
(I3
tp1406
g12
I00
S'\xddU\x96\x06`^>@I\x85\xa0\x1aB\t+@\xde\x87\xff\xc6<\xfe\x08@'
p1407
tp1408
bag2
(g3
(I0
tp1409
g5
tp1410
Rp1411
(I1
(I3
tp1412
g12
I00
S'y\x16\xd5\xbeZZ>@4ML\tf\t+@/\x981\x1f\x01\x93\x08@'
p1413
tp1414
bag2
(g3
(I0
tp1415
g5
tp1416
Rp1417
(I1
(I3
tp1418
g12
I00
S"\xa6_\xe6\xd0WV>@\xef\x9a\xf7\xa7\xf5\t+@\x80\xa8cw\xc5'\x08@"
p1419
tp1420
bag2
(g3
(I0
tp1421
g5
tp1422
Rp1423
(I1
(I3
tp1424
g12
I00
S'\xc1"]\rZR>@\xa6\x0f\xdc\x91\xf0\n+@\xd0\xb8\x95\xcf\x89\xbc\x07@'
p1425
tp1426
bag2
(g3
(I0
tp1427
g5
tp1428
Rp1429
(I1
(I3
tp1430
g12
I00
S'\xe4\x0fUp\x12R>@Oh\x13\xd3\t\x0b+@\x8a\x06\xf8\xa8\xf6\xb4\x07@'
p1431
tp1432
bag2
(g3
(I0
tp1433
g5
tp1434
Rp1435
(I1
(I3
tp1436
g12
I00
S'\x80\x8d\x1e\x17}\x06>@\x0c\xd0\xe3 E&+@\x8a\x06\xf8\xa8\xf6\xb4\x07@'
p1437
tp1438
bag2
(g3
(I0
tp1439
g5
tp1440
Rp1441
(I1
(I3
tp1442
g12
I00
S'\x1d\x0b\xe8\xbd\xe7\xba=@\xca7\xb4n\x80A+@\x8a\x06\xf8\xa8\xf6\xb4\x07@'
p1443
tp1444
bag2
(g3
(I0
tp1445
g5
tp1446
Rp1447
(I1
(I3
tp1448
g12
I00
S'\xba\x88\xb1dRo=@\x87\x9f\x84\xbc\xbb\\+@\x8a\x06\xf8\xa8\xf6\xb4\x07@'
p1449
tp1450
bag2
(g3
(I0
tp1451
g5
tp1452
Rp1453
(I1
(I3
tp1454
g12
I00
S'W\x06{\x0b\xbd#=@E\x07U\n\xf7w+@\x8a\x06\xf8\xa8\xf6\xb4\x07@'
p1455
tp1456
bag2
(g3
(I0
tp1457
g5
tp1458
Rp1459
(I1
(I3
tp1460
g12
I00
S"\xf4\x83D\xb2'\xd8<@\x02o%X2\x93+@\x8a\x06\xf8\xa8\xf6\xb4\x07@"
p1461
tp1462
bag2
(g3
(I0
tp1463
g5
tp1464
Rp1465
(I1
(I3
tp1466
g12
I00
S'\x7f\x89\xbb.\xd5\xbf<@\x8c\xe5\xea\xab\xf5\x9b+@\x8a\x06\xf8\xa8\xf6\xb4\x07@'
p1467
tp1468
bag2
(g3
(I0
tp1469
g5
tp1470
Rp1471
(I1
(I3
tp1472
g12
I00
S'+w\x93\r\xe0\xbb<@\xd19,\xb0b\x9d+@\xda\x16*\x01\xbbI\x07@'
p1473
tp1474
bag2
(g3
(I0
tp1475
g5
tp1476
Rp1477
(I1
(I3
tp1478
g12
I00
S"\x16\xb8\x1c\xdd\xf5\xb7<@\x16\xb21@9\x9f+@+'\\Y\x7f\xde\x06@"
p1479
tp1480
bag2
(g3
(I0
tp1481
g5
tp1482
Rp1483
(I1
(I3
tp1484
g12
I00
S'\x0c/\x8e\\\x19\xb4<@\xe7S\xcc\x11x\xa1+@|7\x8e\xb1Cs\x06@'
p1485
tp1486
bag2
(g3
(I0
tp1487
g5
tp1488
Rp1489
(I1
(I3
tp1490
g12
I00
S'\xb3\xbe\xa2\xfe\x19\xb3<@vq\x81\x0b*\xa2+@\x88D\xe7J\x18W\x06@'
p1491
tp1492
bag2
(g3
(I0
tp1493
g5
tp1494
Rp1495
(I1
(I3
tp1496
g12
I00
S'\x00\x00p(3\xb3<@\x00\x00\xe0\xff\xd6\xa3+@\x87D\xe7J\x18W\x06@'
p1497
tp1498
bag2
(g3
(I0
tp1499
g5
tp1500
Rp1501
(I1
(I3
tp1502
g12
I00
S'u/\xb4\xcdk\xaf<@`\xe5\n-\x97\xa6+@\xd8T\x19\xa3\xdc\xeb\x05@'
p1503
tp1504
bag2
(g3
(I0
tp1505
g5
tp1506
Rp1507
(I1
(I3
tp1508
g12
I00
S'\x89IS&Q\xad<@p\x01Fw`\xa8+@\xbf\x00\xc1\x0b\xe8\xae\x05@'
p1509
tp1510
bag2
(g3
(I0
tp1511
g5
tp1512
Rp1513
(I1
(I3
tp1514
g12
I00
S'\xd1m#\xea\x8bg<@\x8eO\x9f\xfb\x92\xe8+@\xbf\x00\xc1\x0b\xe8\xae\x05@'
p1515
tp1516
bag2
(g3
(I0
tp1517
g5
tp1518
Rp1519
(I1
(I3
tp1520
g12
I00
S'\x1a\x92\xf3\xad\xc6!<@\xac\x9d\xf8\x7f\xc5(,@\xbf\x00\xc1\x0b\xe8\xae\x05@'
p1521
tp1522
bag2
(g3
(I0
tp1523
g5
tp1524
Rp1525
(I1
(I3
tp1526
g12
I00
S'b\xb6\xc3q\x01\xdc;@\xca\xebQ\x04\xf8h,@\xbf\x00\xc1\x0b\xe8\xae\x05@'
p1527
tp1528
bag2
(g3
(I0
tp1529
g5
tp1530
Rp1531
(I1
(I3
tp1532
g12
I00
S'\xaa\xda\x935<\x96;@\xe89\xab\x88*\xa9,@\xbf\x00\xc1\x0b\xe8\xae\x05@'
p1533
tp1534
bag2
(g3
(I0
tp1535
g5
tp1536
Rp1537
(I1
(I3
tp1538
g12
I00
S'\xf3\xfec\xf9vP;@\x06\x88\x04\r]\xe9,@\xbf\x00\xc1\x0b\xe8\xae\x05@'
p1539
tp1540
bag2
(g3
(I0
tp1541
g5
tp1542
Rp1543
(I1
(I3
tp1544
g12
I00
S';#4\xbd\xb1\n;@$\xd6]\x91\x8f)-@\xbf\x00\xc1\x0b\xe8\xae\x05@'
p1545
tp1546
bag2
(g3
(I0
tp1547
g5
tp1548
Rp1549
(I1
(I3
tp1550
g12
I00
S'\x84G\x04\x81\xec\xc4:@B$\xb7\x15\xc2i-@\xbf\x00\xc1\x0b\xe8\xae\x05@'
p1551
tp1552
bag2
(g3
(I0
tp1553
g5
tp1554
Rp1555
(I1
(I3
tp1556
g12
I00
S"\xcck\xd4D'\x7f:@`r\x10\x9a\xf4\xa9-@\xbf\x00\xc1\x0b\xe8\xae\x05@"
p1557
tp1558
bag2
(g3
(I0
tp1559
g5
tp1560
Rp1561
(I1
(I3
tp1562
g12
I00
S"\x14\x90\xa4\x08b9:@~\xc0i\x1e'\xea-@\xbf\x00\xc1\x0b\xe8\xae\x05@"
p1563
tp1564
bag2
(g3
(I0
tp1565
g5
tp1566
Rp1567
(I1
(I3
tp1568
g12
I00
S']\xb4t\xcc\x9c\xf39@\x9c\x0e\xc3\xa2Y*.@\xbf\x00\xc1\x0b\xe8\xae\x05@'
p1569
tp1570
bag2
(g3
(I0
tp1571
g5
tp1572
Rp1573
(I1
(I3
tp1574
g12
I00
S"\xa5\xd8D\x90\xd7\xad9@\xba\\\x1c'\x8cj.@\xbf\x00\xc1\x0b\xe8\xae\x05@"
p1575
tp1576
bag2
(g3
(I0
tp1577
g5
tp1578
Rp1579
(I1
(I3
tp1580
g12
I00
S'\xee\xfc\x14T\x12h9@\xd9\xaau\xab\xbe\xaa.@\xbf\x00\xc1\x0b\xe8\xae\x05@'
p1581
tp1582
bag2
(g3
(I0
tp1583
g5
tp1584
Rp1585
(I1
(I3
tp1586
g12
I00
S'6!\xe5\x17M"9@\xf7\xf8\xce/\xf1\xea.@\xbf\x00\xc1\x0b\xe8\xae\x05@'
p1587
tp1588
bag2
(g3
(I0
tp1589
g5
tp1590
Rp1591
(I1
(I3
tp1592
g12
I00
S'\x8a\x7f^\xb1\xc7\x059@\x02\xf5\xdb]/\x05/@\xbf\x00\xc1\x0b\xe8\xae\x05@'
p1593
tp1594
bag2
(g3
(I0
tp1595
g5
tp1596
Rp1597
(I1
(I3
tp1598
g12
I00
S'=j\x13{ \x029@\xa7B=\xe0\x8b\x08/@n\xf0\x8e\xb3#\x1a\x06@'
p1599
tp1600
bag2
(g3
(I0
tp1601
g5
tp1602
Rp1603
(I1
(I3
tp1604
g12
I00
S'\xce\xe3^\xcc\x00\x009@\xa9\xc06\xb5<\n/@\x87D\xe7J\x18W\x06@'
p1605
tp1606
bag2
(g3
(I0
tp1607
g5
tp1608
Rp1609
(I1
(I3
tp1610
g12
I00
S'\x00\x00\xa0\xf6\xff\xff8@\x00\x00\x00e=\n/@\x87D\xe7J\x18W\x06@'
p1611
tp1612
bag2
(g3
(I0
tp1613
g5
tp1614
Rp1615
(I1
(I3
tp1616
g12
I00
S'u/\xe4\x9b8\xfc8@`\xe5*\x92\xfd\x0c/@64\xb5\xf2S\xc2\x06@'
p1617
tp1618
bag2
(g3
(I0
tp1619
g5
tp1620
Rp1621
(I1
(I3
tp1622
g12
I00
S"\r\x8aC'`\xf88@h@\x0b\x87W\x0f/@\xe6#\x83\x9a\x8f-\x07@"
p1623
tp1624
bag2
(g3
(I0
tp1625
g5
tp1626
Rp1627
(I1
(I3
tp1628
g12
I00
S'\x80q\x83Ky\xf48@!\xd7?\x9dI\x11/@\x95\x13QB\xcb\x98\x07@'
p1629
tp1630
bag2
(g3
(I0
tp1631
g5
tp1632
Rp1633
(I1
(I3
tp1634
g12
I00
S'\x02t\x84\xc5\x86\xf08@\xb6\x87Iw\xd2\x12/@D\x03\x1f\xea\x06\x04\x08@'
p1635
tp1636
bag2
(g3
(I0
tp1637
g5
tp1638
Rp1639
(I1
(I3
tp1640
g12
I00
S'\xf1\x81VZ\x8b\xec8@h\x84\x80\x01\xf1\x13/@\xf4\xf2\xec\x91Bo\x08@'
p1641
tp1642
bag2
(g3
(I0
tp1643
g5
tp1644
Rp1645
(I1
(I3
tp1646
g12
I00
S'b\xdc\xcct\xe5\xe98@d\x1fV\x9fg\x14/@\x05%\x9c\xdd$\xb6\x08@'
p1647
tp1648
bag2
(g3
(I0
tp1649
g5
tp1650
Rp1651
(I1
(I3
tp1652
g12
I00
S'\xaa\xb6\xc6\xe73\x9d8@\x03\x11\x8a&}\x1c/@\x05%\x9c\xdd$\xb6\x08@'
p1653
tp1654
bag2
(g3
(I0
tp1655
g5
tp1656
Rp1657
(I1
(I3
tp1658
g12
I00
S'\xf2\x90\xc0Z\x82P8@\xa2\x02\xbe\xad\x92$/@\x05%\x9c\xdd$\xb6\x08@'
p1659
tp1660
bag2
(g3
(I0
tp1661
g5
tp1662
Rp1663
(I1
(I3
tp1664
g12
I00
S':k\xba\xcd\xd0\x038@@\xf4\xf14\xa8,/@\x05%\x9c\xdd$\xb6\x08@'
p1665
tp1666
bag2
(g3
(I0
tp1667
g5
tp1668
Rp1669
(I1
(I3
tp1670
g12
I00
S'\x82E\xb4@\x1f\xb77@\xdf\xe5%\xbc\xbd4/@\x05%\x9c\xdd$\xb6\x08@'
p1671
tp1672
bag2
(g3
(I0
tp1673
g5
tp1674
Rp1675
(I1
(I3
tp1676
g12
I00
S'\xca\x1f\xae\xb3mj7@}\xd7YC\xd3</@\x05%\x9c\xdd$\xb6\x08@'
p1677
tp1678
bag2
(g3
(I0
tp1679
g5
tp1680
Rp1681
(I1
(I3
tp1682
g12
I00
S'\x12\xfa\xa7&\xbc\x1d7@\x1c\xc9\x8d\xca\xe8D/@\x05%\x9c\xdd$\xb6\x08@'
p1683
tp1684
bag2
(g3
(I0
tp1685
g5
tp1686
Rp1687
(I1
(I3
tp1688
g12
I00
S'Z\xd4\xa1\x99\n\xd16@\xba\xba\xc1Q\xfeL/@\x05%\x9c\xdd$\xb6\x08@'
p1689
tp1690
bag2
(g3
(I0
tp1691
g5
tp1692
Rp1693
(I1
(I3
tp1694
g12
I00
S'\xa2\xae\x9b\x0cY\x846@Y\xac\xf5\xd8\x13U/@\x05%\x9c\xdd$\xb6\x08@'
p1695
tp1696
bag2
(g3
(I0
tp1697
g5
tp1698
Rp1699
(I1
(I3
tp1700
g12
I00
S'\xea\x88\x95\x7f\xa776@\xf8\x9d)`)]/@\x05%\x9c\xdd$\xb6\x08@'
p1701
tp1702
bag2
(g3
(I0
tp1703
g5
tp1704
Rp1705
(I1
(I3
tp1706
g12
I00
S'2c\x8f\xf2\xf5\xea5@\x96\x8f]\xe7>e/@\x05%\x9c\xdd$\xb6\x08@'
p1707
tp1708
bag2
(g3
(I0
tp1709
g5
tp1710
Rp1711
(I1
(I3
tp1712
g12
I00
S'z=\x89eD\x9e5@5\x81\x91nTm/@\x05%\x9c\xdd$\xb6\x08@'
p1713
tp1714
bag2
(g3
(I0
tp1715
g5
tp1716
Rp1717
(I1
(I3
tp1718
g12
I00
S'\xc2\x17\x83\xd8\x92Q5@\xd3r\xc5\xf5iu/@\x05%\x9c\xdd$\xb6\x08@'
p1719
tp1720
bag2
(g3
(I0
tp1721
g5
tp1722
Rp1723
(I1
(I3
tp1724
g12
I00
S'~\xf4\xca=n\x1e5@d\x1f\x96\x05\xcez/@\x05%\x9c\xdd$\xb6\x08@'
p1725
tp1726
bag2
(g3
(I0
tp1727
g5
tp1728
Rp1729
(I1
(I3
tp1730
g12
I00
S'\x99\xa1&;j\x1a5@\xc3\xcc\xcea:{/@\xb4\x14j\x85`!\t@'
p1731
tp1732
bag2
(g3
(I0
tp1733
g5
tp1734
Rp1735
(I1
(I3
tp1736
g12
I00
S'\xb6\x0cE\xcbd\x165@\xbf\x13p\xfd:{/@\xccUP{Z\xb7\x08\xc0'
p1737
tp1738
bag2
(g3
(I0
tp1739
g5
tp1740
Rp1741
(I1
(I3
tp1742
g12
I00
S'0\x98{\xc0`\x125@\x96\xc0\x0c\xd8\xcfz/@\x1df\x82\xd3\x1eL\x08\xc0'
p1743
tp1744
bag2
(g3
(I0
tp1745
g5
tp1746
Rp1747
(I1
(I3
tp1748
g12
I00
S'\xb3\x15%\xec`\x0e5@\xd6m\xd3<\xf9y/@nv\xb4+\xe3\xe0\x07\xc0'
p1749
tp1750
bag2
(g3
(I0
tp1751
g5
tp1752
Rp1753
(I1
(I3
tp1754
g12
I00
S'\x83\x9d\xa7\x1ch\n5@t\xc3Y\xc2\xb7x/@\xbe\x86\xe6\x83\xa7u\x07\xc0'
p1755
tp1756
bag2
(g3
(I0
tp1757
g5
tp1758
Rp1759
(I1
(I3
tp1760
g12
I00
S'\xd0x|\x1by\x065@T\xcd2J\x0cw/@\x0f\x97\x18\xdck\n\x07\xc0'
p1761
tp1762
bag2
(g3
(I0
tp1763
g5
tp1764
Rp1765
(I1
(I3
tp1766
g12
I00
S'\xaa\x80;\xab\x96\x025@q\xb3P\x00\xf8t/@`\xa7J40\x9f\x06\xc0'
p1767
tp1768
bag2
(g3
(I0
tp1769
g5
tp1770
Rp1771
(I1
(I3
tp1772
g12
I00
S'\xc0\x04\xf8a\x04\x005@\x92?\x93\xa6Ls/@\x86D\xe7J\x18W\x06\xc0'
p1773
tp1774
bag2
(g3
(I0
tp1775
g5
tp1776
Rp1777
(I1
(I3
tp1778
g12
I00
S'\x00\x00 \xf8\xff\xff4@\x00\x00@\xcb\xa3p/@\x87D\xe7J\x18W\x06\xc0'
p1779
tp1780
bag2
(g3
(I0
tp1781
g5
tp1782
Rp1783
(I1
(I3
tp1784
g12
I00
S'u/d\x9d8\xfc4@\xa0\x1a\x15\x9e\xe3m/@\xd8T\x19\xa3\xdc\xeb\x05\xc0'
p1785
tp1786
bag2
(g3
(I0
tp1787
g5
tp1788
Rp1789
(I1
(I3
tp1790
g12
I00
S'\x13\xb6R\x03\x85\xf84@\x18\x9d\xba&\xbfj/@(eK\xfb\xa0\x80\x05\xc0'
p1791
tp1792
bag2
(g3
(I0
tp1793
g5
tp1794
Rp1795
(I1
(I3
tp1796
g12
I00
S'*y\xe2\x167\xf84@\xa2\xd0\xb8#sj/@\xe3\x9cd\t\x99w\x05\xc0'
p1797
tp1798
bag2
(g3
(I0
tp1799
g5
tp1800
Rp1801
(I1
(I3
tp1802
g12
I00
S'c\x90\xc8AV\xb34@\x06zm\x01\x82&/@\xe3\x9cd\t\x99w\x05\xc0'
p1803
tp1804
bag2
(g3
(I0
tp1805
g5
tp1806
Rp1807
(I1
(I3
tp1808
g12
I00
S'\x9c\xa7\xaelun4@i#"\xdf\x90\xe2.@\xe3\x9cd\t\x99w\x05\xc0'
p1809
tp1810
bag2
(g3
(I0
tp1811
g5
tp1812
Rp1813
(I1
(I3
tp1814
g12
I00
S'\xd5\xbe\x94\x97\x94)4@\xcc\xcc\xd6\xbc\x9f\x9e.@\xe3\x9cd\t\x99w\x05\xc0'
p1815
tp1816
bag2
(g3
(I0
tp1817
g5
tp1818
Rp1819
(I1
(I3
tp1820
g12
I00
S'\x0e\xd6z\xc2\xb3\xe43@/v\x8b\x9a\xaeZ.@\xe3\x9cd\t\x99w\x05\xc0'
p1821
tp1822
bag2
(g3
(I0
tp1823
g5
tp1824
Rp1825
(I1
(I3
tp1826
g12
I00
S'G\xed`\xed\xd2\x9f3@\x93\x1f@x\xbd\x16.@\xe3\x9cd\t\x99w\x05\xc0'
p1827
tp1828
bag2
(g3
(I0
tp1829
g5
tp1830
Rp1831
(I1
(I3
tp1832
g12
I00
S'\x80\x04G\x18\xf2Z3@\xf6\xc8\xf4U\xcc\xd2-@\xe3\x9cd\t\x99w\x05\xc0'
p1833
tp1834
bag2
(g3
(I0
tp1835
g5
tp1836
Rp1837
(I1
(I3
tp1838
g12
I00
S'\xb9\x1b-C\x11\x163@Yr\xa93\xdb\x8e-@\xe3\x9cd\t\x99w\x05\xc0'
p1839
tp1840
bag2
(g3
(I0
tp1841
g5
tp1842
Rp1843
(I1
(I3
tp1844
g12
I00
S'\xf22\x13n0\xd12@\xbc\x1b^\x11\xeaJ-@\xe3\x9cd\t\x99w\x05\xc0'
p1845
tp1846
bag2
(g3
(I0
tp1847
g5
tp1848
Rp1849
(I1
(I3
tp1850
g12
I00
S'+J\xf9\x98O\x8c2@ \xc5\x12\xef\xf8\x06-@\xe3\x9cd\t\x99w\x05\xc0'
p1851
tp1852
bag2
(g3
(I0
tp1853
g5
tp1854
Rp1855
(I1
(I3
tp1856
g12
I00
S'da\xdf\xc3nG2@\x83n\xc7\xcc\x07\xc3,@\xe3\x9cd\t\x99w\x05\xc0'
p1857
tp1858
bag2
(g3
(I0
tp1859
g5
tp1860
Rp1861
(I1
(I3
tp1862
g12
I00
S'\x9dx\xc5\xee\x8d\x022@\xe6\x17|\xaa\x16\x7f,@\xe3\x9cd\t\x99w\x05\xc0'
p1863
tp1864
bag2
(g3
(I0
tp1865
g5
tp1866
Rp1867
(I1
(I3
tp1868
g12
I00
S'\xd6\x8f\xab\x19\xad\xbd1@I\xc10\x88%;,@\xe3\x9cd\t\x99w\x05\xc0'
p1869
tp1870
bag2
(g3
(I0
tp1871
g5
tp1872
Rp1873
(I1
(I3
tp1874
g12
I00
S'\x0f\xa7\x91D\xccx1@\xacj\xe5e4\xf7+@\xe3\x9cd\t\x99w\x05\xc0'
p1875
tp1876
bag2
(g3
(I0
tp1877
g5
tp1878
Rp1879
(I1
(I3
tp1880
g12
I00
S'H\xbewo\xeb31@\x10\x14\x9aCC\xb3+@\xe3\x9cd\t\x99w\x05\xc0'
p1881
tp1882
bag2
(g3
(I0
tp1883
g5
tp1884
Rp1885
(I1
(I3
tp1886
g12
I00
S'\x81\xd5]\x9a\n\xef0@s\xbdN!Ro+@\xe3\x9cd\t\x99w\x05\xc0'
p1887
tp1888
bag2
(g3
(I0
tp1889
g5
tp1890
Rp1891
(I1
(I3
tp1892
g12
I00
S'\xba\xecC\xc5)\xaa0@\xd6f\x03\xff`++@\xe3\x9cd\t\x99w\x05\xc0'
p1893
tp1894
bag2
(g3
(I0
tp1895
g5
tp1896
Rp1897
(I1
(I3
tp1898
g12
I00
S'\xf3\x03*\xf0He0@9\x10\xb8\xdco\xe7*@\xe3\x9cd\t\x99w\x05\xc0'
p1899
tp1900
bag2
(g3
(I0
tp1901
g5
tp1902
Rp1903
(I1
(I3
tp1904
g12
I00
S',\x1b\x10\x1bh 0@\x9c\xb9l\xba~\xa3*@\xe3\x9cd\t\x99w\x05\xc0'
p1905
tp1906
bag2
(g3
(I0
tp1907
g5
tp1908
Rp1909
(I1
(I3
tp1910
g12
I00
S'\xcad\xec\x8b\x0e\xb7/@\x00c!\x98\x8d_*@\xe3\x9cd\t\x99w\x05\xc0'
p1911
tp1912
bag2
(g3
(I0
tp1913
g5
tp1914
Rp1915
(I1
(I3
tp1916
g12
I00
S'<\x93\xb8\xe1L-/@c\x0c\xd6u\x9c\x1b*@\xe3\x9cd\t\x99w\x05\xc0'
p1917
tp1918
bag2
(g3
(I0
tp1919
g5
tp1920
Rp1921
(I1
(I3
tp1922
g12
I00
S'\xae\xc1\x847\x8b\xa3.@\xc6\xb5\x8aS\xab\xd7)@\xe3\x9cd\t\x99w\x05\xc0'
p1923
tp1924
bag2
(g3
(I0
tp1925
g5
tp1926
Rp1927
(I1
(I3
tp1928
g12
I00
S'\x1f\xf0P\x8d\xc9\x19.@*_?1\xba\x93)@\xe3\x9cd\t\x99w\x05\xc0'
p1929
tp1930
bag2
(g3
(I0
tp1931
g5
tp1932
Rp1933
(I1
(I3
tp1934
g12
I00
S'\x92\x1e\x1d\xe3\x07\x90-@\x8d\x08\xf4\x0e\xc9O)@\xe3\x9cd\t\x99w\x05\xc0'
p1935
tp1936
bag2
(g3
(I0
tp1937
g5
tp1938
Rp1939
(I1
(I3
tp1940
g12
I00
S'\x04M\xe98F\x06-@\xf0\xb1\xa8\xec\xd7\x0b)@\xe3\x9cd\t\x99w\x05\xc0'
p1941
tp1942
bag2
(g3
(I0
tp1943
g5
tp1944
Rp1945
(I1
(I3
tp1946
g12
I00
S'v{\xb5\x8e\x84|,@S[]\xca\xe6\xc7(@\xe3\x9cd\t\x99w\x05\xc0'
p1947
tp1948
bag2
(g3
(I0
tp1949
g5
tp1950
Rp1951
(I1
(I3
tp1952
g12
I00
S'\xe8\xa9\x81\xe4\xc2\xf2+@\xb6\x04\x12\xa8\xf5\x83(@\xe3\x9cd\t\x99w\x05\xc0'
p1953
tp1954
bag2
(g3
(I0
tp1955
g5
tp1956
Rp1957
(I1
(I3
tp1958
g12
I00
S'Y\xd8M:\x01i+@\x1a\xae\xc6\x85\x04@(@\xe3\x9cd\t\x99w\x05\xc0'
p1959
tp1960
bag2
(g3
(I0
tp1961
g5
tp1962
Rp1963
(I1
(I3
tp1964
g12
I00
S"\xca\x06\x1a\x90?\xdf*@}W{c\x13\xfc'@\xe3\x9cd\t\x99w\x05\xc0"
p1965
tp1966
bag2
(g3
(I0
tp1967
g5
tp1968
Rp1969
(I1
(I3
tp1970
g12
I00
S'<5\xe6\xe5}U*@\xe0\x000A"\xb8\'@\xe3\x9cd\t\x99w\x05\xc0'
p1971
tp1972
bag2
(g3
(I0
tp1973
g5
tp1974
Rp1975
(I1
(I3
tp1976
g12
I00
S"t\xe8n\xed\xea@*@{\xc1\x90\x91\xfc\xad'@\xe3\x9cd\t\x99w\x05\xc0"
p1977
tp1978
bag2
(g3
(I0
tp1979
g5
tp1980
Rp1981
(I1
(I3
tp1982
g12
I00
S"A\xa7\xeck\xb49*@F\x96\xc2\xddm\xaa'@4\xad\x96a]\x0c\x05\xc0"
p1983
tp1984
bag2
(g3
(I0
tp1985
g5
tp1986
Rp1987
(I1
(I3
tp1988
g12
I00
S"\xb74\xd6\x1b\xb02*@\xa1M\xf8\xc5\x7f\xa6'@\x84\xbd\xc8\xb9!\xa1\x04\xc0"
p1989
tp1990
bag2
(g3
(I0
tp1991
g5
tp1992
Rp1993
(I1
(I3
tp1994
g12
I00
S"p\x8f\x9a\xe9\xe2+*@\xf3\xfe%\x0c5\xa2'@\xd5\xcd\xfa\x11\xe65\x04\xc0"
p1995
tp1996
bag2
(g3
(I0
tp1997
g5
tp1998
Rp1999
(I1
(I3
tp2000
g12
I00
S'%"\xfc\x9aQ%*@\x18`?\xb3\x90\x9d\'@&\xde,j\xaa\xca\x03\xc0'
p2001
tp2002
bag2
(g3
(I0
tp2003
g5
tp2004
Rp2005
(I1
(I3
tp2006
g12
I00
S"\x8d{\xb7\xcb\x00\x1f*@\x8e\xcf\x1a\xfd\x95\x98'@v\xee^\xc2n_\x03\xc0"
p2007
tp2008
bag2
(g3
(I0
tp2009
g5
tp2010
Rp2011
(I1
(I3
tp2012
g12
I00
S"\xb2\x82G\xea\xf4\x18*@\x94>(hH\x93'@\xc8\xfe\x90\x1a3\xf4\x02\xc0"
p2013
tp2014
bag2
(g3
(I0
tp2015
g5
tp2016
Rp2017
(I1
(I3
tp2018
g12
I00
S"\xbel\xc942\x13*@\xba\x95\xfd\xac\xab\x8d'@\x17\x0f\xc3r\xf7\x88\x02\xc0"
p2019
tp2020
bag2
(g3
(I0
tp2021
g5
tp2022
Rp2023
(I1
(I3
tp2024
g12
I00
S"\xb2\xa2\x02\xb6\xbc\r*@LL\xba\xbb\xc3\x87'@h\x1f\xf5\xca\xbb\x1d\x02\xc0"
p2025
tp2026
bag2
(g3
(I0
tp2027
g5
tp2028
Rp2029
(I1
(I3
tp2030
g12
I00
S"\xdd\xad\x8aB\x98\x08*@\x95\x07D\xb9\x94\x81'@\xb9/'#\x80\xb2\x01\xc0"
p2031
tp2032
bag2
(g3
(I0
tp2033
g5
tp2034
Rp2035
(I1
(I3
tp2036
g12
I00
S'\x82(\x1bv\xc8\x03*@W2^\xfc"{\'@\n@Y{DG\x01\xc0'
p2037
tp2038
bag2
(g3
(I0
tp2039
g5
tp2040
Rp2041
(I1
(I3
tp2042
g12
I00
S"r\x95\x07\xb1P\xff)@\xc8\x96\x9e\nst'@ZP\x8b\xd3\x08\xdc\x00\xc0"
p2043
tp2044
bag2
(g3
(I0
tp2045
g5
tp2046
Rp2047
(I1
(I3
tp2048
g12
I00
S"3\xb0\xd6xJ\xfe)@\x0bs^>\xbar'@fs-8R\xc1\x00\xc0"
p2049
tp2050
bag2
(g3
(I0
tp2051
g5
tp2052
Rp2053
(I1
(I3
tp2054
g12
I00
S"\x00\x00@\xf6\xff\xff)@\x00\x00@\xce\xa3p'@fs-8R\xc1\x00\xc0"
p2055
tp2056
bag2
(g3
(I0
tp2057
g5
tp2058
Rp2059
(I1
(I3
tp2060
g12
I00
S"6z[\x86\xfa\xfb)@\x94\xbc\xb1\xc4\xaci'@\x15c\xfb\xdf\x8d,\x01\xc0"
p2061
tp2062
bag2
(g3
(I0
tp2063
g5
tp2064
Rp2065
(I1
(I3
tp2066
g12
I00
S"\x10\x96\xd6\xb5H\xff)@zT\x9a\xc7\xc3n'@\x97b\x8e^\xa2\xdb\x00\xc0"
p2067
tp2068
bag2
(g3
(I0
tp2069
g5
tp2070
Rp2071
(I1
(I3
tp2072
g12
I00
S'm\x96\xf1\x04\xc8\xb0)@]\xc3<\xaf\xbd\xea&@\x97b\x8e^\xa2\xdb\x00\xc0'
p2073
tp2074
bag2
(g3
(I0
tp2075
g5
tp2076
Rp2077
(I1
(I3
tp2078
g12
I00
S'\xca\x96\x0cTGb)@A2\xdf\x96\xb7f&@\x97b\x8e^\xa2\xdb\x00\xc0'
p2079
tp2080
bag2
(g3
(I0
tp2081
g5
tp2082
Rp2083
(I1
(I3
tp2084
g12
I00
S"(\x97'\xa3\xc6\x13)@%\xa1\x81~\xb1\xe2%@\x97b\x8e^\xa2\xdb\x00\xc0"
p2085
tp2086
bag2
(g3
(I0
tp2087
g5
tp2088
Rp2089
(I1
(I3
tp2090
g12
I00
S'\x85\x97B\xf2E\xc5(@\x08\x10$f\xab^%@\x97b\x8e^\xa2\xdb\x00\xc0'
p2091
tp2092
bag2
(g3
(I0
tp2093
g5
tp2094
Rp2095
(I1
(I3
tp2096
g12
I00
S'\xe2\x97]A\xc5v(@\xec~\xc6M\xa5\xda$@\x97b\x8e^\xa2\xdb\x00\xc0'
p2097
tp2098
bag2
(g3
(I0
tp2099
g5
tp2100
Rp2101
(I1
(I3
tp2102
g12
I00
S'?\x98x\x90D((@\xd0\xedh5\x9fV$@\x97b\x8e^\xa2\xdb\x00\xc0'
p2103
tp2104
bag2
(g3
(I0
tp2105
g5
tp2106
Rp2107
(I1
(I3
tp2108
g12
I00
S"\x9d\x98\x93\xdf\xc3\xd9'@\xb4\\\x0b\x1d\x99\xd2#@\x97b\x8e^\xa2\xdb\x00\xc0"
p2109
tp2110
bag2
(g3
(I0
tp2111
g5
tp2112
Rp2113
(I1
(I3
tp2114
g12
I00
S"\xfa\x98\xae.C\x8b'@\x97\xcb\xad\x04\x93N#@\x97b\x8e^\xa2\xdb\x00\xc0"
p2115
tp2116
bag2
(g3
(I0
tp2117
g5
tp2118
Rp2119
(I1
(I3
tp2120
g12
I00
S'W\x99\xc9}\xc2<\'@{:P\xec\x8c\xca"@\x97b\x8e^\xa2\xdb\x00\xc0'
p2121
tp2122
bag2
(g3
(I0
tp2123
g5
tp2124
Rp2125
(I1
(I3
tp2126
g12
I00
S'\xb4\x99\xe4\xccA\xee&@^\xa9\xf2\xd3\x86F"@\x97b\x8e^\xa2\xdb\x00\xc0'
p2127
tp2128
bag2
(g3
(I0
tp2129
g5
tp2130
Rp2131
(I1
(I3
tp2132
g12
I00
S'\x12\x9a\xff\x1b\xc1\x9f&@B\x18\x95\xbb\x80\xc2!@\x97b\x8e^\xa2\xdb\x00\xc0'
p2133
tp2134
bag2
(g3
(I0
tp2135
g5
tp2136
Rp2137
(I1
(I3
tp2138
g12
I00
S'o\x9a\x1ak@Q&@&\x877\xa3z>!@\x97b\x8e^\xa2\xdb\x00\xc0'
p2139
tp2140
bag2
(g3
(I0
tp2141
g5
tp2142
Rp2143
(I1
(I3
tp2144
g12
I00
S'\xcc\x9a5\xba\xbf\x02&@\n\xf6\xd9\x8at\xba @\x97b\x8e^\xa2\xdb\x00\xc0'
p2145
tp2146
bag2
(g3
(I0
tp2147
g5
tp2148
Rp2149
(I1
(I3
tp2150
g12
I00
S'*\x9bP\t?\xb4%@\xeed|rn6 @\x97b\x8e^\xa2\xdb\x00\xc0'
p2151
tp2152
bag2
(g3
(I0
tp2153
g5
tp2154
Rp2155
(I1
(I3
tp2156
g12
I00
S'R\x90\xab"\xe1\x9a%@%\xba*,\xc5\x0b @\x97b\x8e^\xa2\xdb\x00\xc0'
p2157
tp2158
bag2
(g3
(I0
tp2159
g5
tp2160
Rp2161
(I1
(I3
tp2162
g12
I00
S'\x9f\xdd\t\xe0\xc4\x96%@2\x9d&\x82\xdb\x04 @\xe7r\xc0\xb6fp\x00\xc0'
p2163
tp2164
bag2
(g3
(I0
tp2165
g5
tp2166
Rp2167
(I1
(I3
tp2168
g12
I00
S'\x8b\xfa`\xf3\x97\x99%@K\xdb\xde\xa7:\n @fs-8R\xc1\x00\xc0'
p2169
tp2170
baaccopy_reg
_reconstructor
p2171
(cgeometry_msgs.msg._PoseArray
PoseArray
p2172
c__builtin__
object
p2173
Ntp2174
Rp2175
(lp2176
g2171
(cstd_msgs.msg._Header
Header
p2177
g2173
Ntp2178
Rp2179
(lp2180
I5
ag2171
(crospy.rostime
Time
p2181
g2173
Ntp2182
Rp2183
(lp2184
I1543816749
aI186764955
abaS'map'
p2185
aba(lp2186
g2171
(cgeometry_msgs.msg._Pose
Pose
p2187
g2173
Ntp2188
Rp2189
(lp2190
g2171
(cgeometry_msgs.msg._Point
Point
p2191
g2173
Ntp2192
Rp2193
(lp2194
F49.99999888241291
aF11.919999733567238
aI0
abag2171
(cgeometry_msgs.msg._Quaternion
Quaternion
p2195
g2173
Ntp2196
Rp2197
(lp2198
F0.0
aF0.0
aF-0.09853733595651425
aF0.9951333545925355
ababag2171
(g2187
g2173
Ntp2199
Rp2200
(lp2201
g2171
(g2191
g2173
Ntp2202
Rp2203
(lp2204
F50.01540180939393
aF11.916919157250284
aI0
abag2171
(g2195
g2173
Ntp2205
Rp2206
(lp2207
F0.0
aF0.0
aF-0.12455312405511602
aF0.9922129404961976
ababag2171
(g2187
g2173
Ntp2208
Rp2209
(lp2210
g2171
(g2191
g2173
Ntp2211
Rp2212
(lp2213
F50.01203795895149
aF11.917777210999272
aI0
abag2171
(g2195
g2173
Ntp2214
Rp2215
(lp2216
F0.0
aF0.0
aF-0.11881018923200755
aF0.9929169849159871
ababag2171
(g2187
g2173
Ntp2217
Rp2218
(lp2219
g2171
(g2191
g2173
Ntp2220
Rp2221
(lp2222
F50.303568442312276
aF11.846996018077547
aI0
abag2171
(g2195
g2173
Ntp2223
Rp2224
(lp2225
F0.0
aF0.0
aF-0.11881018923200755
aF0.9929169849159871
ababag2171
(g2187
g2173
Ntp2226
Rp2227
(lp2228
g2171
(g2191
g2173
Ntp2229
Rp2230
(lp2231
F50.59509892567307
aF11.77621482515582
aI0
abag2171
(g2195
g2173
Ntp2232
Rp2233
(lp2234
F0.0
aF0.0
aF-0.11881018923200755
aF0.9929169849159871
ababag2171
(g2187
g2173
Ntp2235
Rp2236
(lp2237
g2171
(g2191
g2173
Ntp2238
Rp2239
(lp2240
F50.886629409033866
aF11.705433632234095
aI0
abag2171
(g2195
g2173
Ntp2241
Rp2242
(lp2243
F0.0
aF0.0
aF-0.11881018923200755
aF0.9929169849159871
ababag2171
(g2187
g2173
Ntp2244
Rp2245
(lp2246
g2171
(g2191
g2173
Ntp2247
Rp2248
(lp2249
F51.17815989239465
aF11.63465243931237
aI0
abag2171
(g2195
g2173
Ntp2250
Rp2251
(lp2252
F0.0
aF0.0
aF-0.11881018923200755
aF0.9929169849159871
ababag2171
(g2187
g2173
Ntp2253
Rp2254
(lp2255
g2171
(g2191
g2173
Ntp2256
Rp2257
(lp2258
F51.46969037575545
aF11.563871246390644
aI0
abag2171
(g2195
g2173
Ntp2259
Rp2260
(lp2261
F0.0
aF0.0
aF-0.11881018923200755
aF0.9929169849159871
ababag2171
(g2187
g2173
Ntp2262
Rp2263
(lp2264
g2171
(g2191
g2173
Ntp2265
Rp2266
(lp2267
F51.76122085911624
aF11.493090053468919
aI0
abag2171
(g2195
g2173
Ntp2268
Rp2269
(lp2270
F0.0
aF0.0
aF-0.11881018923200755
aF0.9929169849159871
ababag2171
(g2187
g2173
Ntp2271
Rp2272
(lp2273
g2171
(g2191
g2173
Ntp2274
Rp2275
(lp2276
F51.77931020221436
aF11.48869811040727
aI0
abag2171
(g2195
g2173
Ntp2277
Rp2278
(lp2279
F0.0
aF0.0
aF-0.11881018923200755
aF0.9929169849159871
ababag2171
(g2187
g2173
Ntp2280
Rp2281
(lp2282
g2171
(g2191
g2173
Ntp2283
Rp2284
(lp2285
F51.79457470262809
aF11.48499201581235
aI0
abag2171
(g2195
g2173
Ntp2286
Rp2287
(lp2288
F0.0
aF0.0
aF-0.09277793935935338
aF0.9956868252458864
ababag2171
(g2187
g2173
Ntp2289
Rp2290
(lp2291
g2171
(g2191
g2173
Ntp2292
Rp2293
(lp2294
F51.81001224557907
aF11.482089882516991
aI0
abag2171
(g2195
g2173
Ntp2295
Rp2296
(lp2297
F0.0
aF0.0
aF-0.06668210412142377
aF0.9977742715614286
ababag2171
(g2187
g2173
Ntp2298
Rp2299
(lp2300
g2171
(g2191
g2173
Ntp2301
Rp2302
(lp2303
F51.82558051783511
aF11.479999665066833
aI0
abag2171
(g2195
g2173
Ntp2304
Rp2305
(lp2306
F0.0
aF0.0
aF-0.04054056830017475
aF0.9991778932311798
ababag2171
(g2187
g2173
Ntp2307
Rp2308
(lp2309
g2171
(g2191
g2173
Ntp2310
Rp2311
(lp2312
F51.8412368478441
aF11.478727092602616
aI0
abag2171
(g2195
g2173
Ntp2313
Rp2314
(lp2315
F0.0
aF0.0
aF-0.014371247998459374
aF0.9998967282829596
ababag2171
(g2187
g2173
Ntp2316
Rp2317
(lp2318
g2171
(g2191
g2173
Ntp2319
Rp2320
(lp2321
F51.85693832269375
aF11.47827565315701
aI0
abag2171
(g2195
g2173
Ntp2322
Rp2323
(lp2324
F0.0
aF0.0
aF0.0118079216387743
aF0.9999302840631303
ababag2171
(g2187
g2173
Ntp2325
Rp2326
(lp2327
g2171
(g2191
g2173
Ntp2328
Rp2329
(lp2330
F51.87264190573289
aF11.478646584094154
aI0
abag2171
(g2195
g2173
Ntp2331
Rp2332
(lp2333
F0.0
aF0.0
aF0.0379789987163356
aF0.9992785375742363
ababag2171
(g2187
g2173
Ntp2334
Rp2335
(lp2336
g2171
(g2191
g2173
Ntp2337
Rp2338
(lp2339
F51.88830455453195
aF11.479838868718135
aI0
abag2171
(g2195
g2173
Ntp2340
Rp2341
(lp2342
F0.0
aF0.0
aF0.06412404688527004
aF0.9979419354907657
ababag2171
(g2187
g2173
Ntp2343
Rp2344
(lp2345
g2171
(g2191
g2173
Ntp2346
Rp2347
(lp2348
F51.903883338859266
aF11.48184923905967
aI0
abag2171
(g2195
g2173
Ntp2349
Rp2350
(lp2351
F0.0
aF0.0
aF0.09022514763553693
aF0.9959213938530217
ababag2171
(g2187
g2173
Ntp2352
Rp2353
(lp2354
g2171
(g2191
g2173
Ntp2355
Rp2356
(lp2357
F51.91933555834987
aF11.484672184833398
aI0
abag2171
(g2195
g2173
Ntp2358
Rp2359
(lp2360
F0.0
aF0.0
aF0.11626441257646113
aF0.9932182974393144
ababag2171
(g2187
g2173
Ntp2361
Rp2362
(lp2363
g2171
(g2191
g2173
Ntp2364
Rp2365
(lp2366
F51.93461885954421
aF11.488299968541167
aI0
abag2171
(g2195
g2173
Ntp2367
Rp2368
(lp2369
F0.0
aF0.0
aF0.1422239956965424
aF0.9898344988169032
ababag2171
(g2187
g2173
Ntp2370
Rp2371
(lp2372
g2171
(g2191
g2173
Ntp2373
Rp2374
(lp2375
F51.94969135197604
aF11.492722646680003
aI0
abag2171
(g2195
g2173
Ntp2376
Rp2377
(lp2378
F0.0
aF0.0
aF0.16808610559422033
aF0.9857723170723393
ababag2171
(g2187
g2173
Ntp2379
Rp2380
(lp2381
g2171
(g2191
g2173
Ntp2382
Rp2383
(lp2384
F51.964511722991276
aF11.497928096996542
aI0
abag2171
(g2195
g2173
Ntp2385
Rp2386
(lp2387
F0.0
aF0.0
aF0.1938330176712123
aF0.9810345362220799
ababag2171
(g2187
g2173
Ntp2388
Rp2389
(lp2390
g2171
(g2191
g2173
Ntp2391
Rp2392
(lp2393
F51.97903935098312
aF11.503902051713293
aI0
abag2171
(g2195
g2173
Ntp2394
Rp2395
(lp2396
F0.0
aF0.0
aF0.21944708628006768
aF0.9756244033044625
ababag2171
(g2187
g2173
Ntp2397
Rp2398
(lp2399
g2171
(g2191
g2173
Ntp2400
Rp2401
(lp2402
F51.99323441673305
aF11.51062813663562
aI0
abag2171
(g2195
g2173
Ntp2403
Rp2404
(lp2405
F0.0
aF0.0
aF0.24491075681761326
aF0.9695456261543466
ababag2171
(g2187
g2173
Ntp2406
Rp2407
(lp2408
g2171
(g2191
g2173
Ntp2409
Rp2410
(lp2411
F52.000823019763715
aF11.514723258142125
aI0
abag2171
(g2195
g2173
Ntp2412
Rp2413
(lp2414
F0.0
aF0.0
aF0.25881904510252113
aF0.9659258262890682
ababag2171
(g2187
g2173
Ntp2415
Rp2416
(lp2417
g2171
(g2191
g2173
Ntp2418
Rp2419
(lp2420
F51.99999883770943
aF11.519999742507935
aI0
abag2171
(g2195
g2173
Ntp2421
Rp2422
(lp2423
F0.0
aF0.0
aF0.25881904510252085
aF0.9659258262890683
ababag2171
(g2187
g2173
Ntp2424
Rp2425
(lp2426
g2171
(g2191
g2173
Ntp2427
Rp2428
(lp2429
F52.01360233294118
aF11.52785372414191
aI0
abag2171
(g2195
g2173
Ntp2430
Rp2431
(lp2432
F0.0
aF0.0
aF0.2840153447039227
aF0.958819734868193
ababag2171
(g2187
g2173
Ntp2433
Rp2434
(lp2435
g2171
(g2191
g2173
Ntp2436
Rp2437
(lp2438
F52.02677613941638
aF11.536408894098216
aI0
abag2171
(g2195
g2173
Ntp2439
Rp2440
(lp2441
F0.0
aF0.0
aF0.3090169943749475
aF0.9510565162951535
ababag2171
(g2187
g2173
Ntp2442
Rp2443
(lp2444
g2171
(g2191
g2173
Ntp2445
Rp2446
(lp2447
F52.03948414864717
aF11.54564180325067
aI0
abag2171
(g2195
g2173
Ntp2448
Rp2449
(lp2450
F0.0
aF0.0
aF0.333806859233771
aF0.9426414910921783
ababag2171
(g2187
g2173
Ntp2451
Rp2452
(lp2453
g2171
(g2191
g2173
Ntp2454
Rp2455
(lp2456
F52.05169152886357
aF11.55552714483705
aI0
abag2171
(g2195
g2173
Ntp2457
Rp2458
(lp2459
F0.0
aF0.0
aF0.3583679495453003
aF0.9335804264972017
ababag2171
(g2187
g2173
Ntp2460
Rp2461
(lp2462
g2171
(g2191
g2173
Ntp2463
Rp2464
(lp2465
F52.063364820484935
aF11.566037823823196
aI0
abag2171
(g2195
g2173
Ntp2466
Rp2467
(lp2468
F0.0
aF0.0
aF0.38268343236508984
aF0.9238795325112867
ababag2171
(g2187
g2173
Ntp2469
Rp2470
(lp2471
g2171
(g2191
g2173
Ntp2472
Rp2473
(lp2474
F52.07447202783033
aF11.577145031168593
aI0
abag2171
(g2195
g2173
Ntp2475
Rp2476
(lp2477
F0.0
aF0.0
aF0.4067366430758003
aF0.9135454576426009
ababag2171
(g2187
g2173
Ntp2478
Rp2479
(lp2480
g2171
(g2191
g2173
Ntp2481
Rp2482
(lp2483
F52.084982706816476
aF11.588818322789956
aI0
abag2171
(g2195
g2173
Ntp2484
Rp2485
(lp2486
F0.0
aF0.0
aF0.43051109680829525
aF0.9025852843498605
ababag2171
(g2187
g2173
Ntp2487
Rp2488
(lp2489
g2171
(g2191
g2173
Ntp2490
Rp2491
(lp2492
F52.09486804840286
aF11.601025703006359
aI0
abag2171
(g2195
g2173
Ntp2493
Rp2494
(lp2495
F0.0
aF0.0
aF0.45399049973954686
aF0.8910065241883678
ababag2171
(g2187
g2173
Ntp2496
Rp2497
(lp2498
g2171
(g2191
g2173
Ntp2499
Rp2500
(lp2501
F52.10410095755531
aF11.613733712237146
aI0
abag2171
(g2195
g2173
Ntp2502
Rp2503
(lp2504
F0.0
aF0.0
aF0.4771587602596085
aF0.8788171126619653
ababag2171
(g2187
g2173
Ntp2505
Rp2506
(lp2507
g2171
(g2191
g2173
Ntp2508
Rp2509
(lp2510
F52.11265612751162
aF11.626907518712343
aI0
abag2171
(g2195
g2173
Ntp2511
Rp2512
(lp2513
F0.0
aF0.0
aF0.5
aF0.8660254037844386
ababag2171
(g2187
g2173
Ntp2514
Rp2515
(lp2516
g2171
(g2191
g2173
Ntp2517
Rp2518
(lp2519
F52.12051010914559
aF11.6405110139441
aI0
abag2171
(g2195
g2173
Ntp2520
Rp2521
(lp2522
F0.0
aF0.0
aF0.5224985647159489
aF0.8526401643540922
ababag2171
(g2187
g2173
Ntp2523
Rp2524
(lp2525
g2171
(g2191
g2173
Ntp2526
Rp2527
(lp2528
F52.1276413752395
aF11.654506911697553
aI0
abag2171
(g2195
g2173
Ntp2529
Rp2530
(lp2531
F0.0
aF0.0
aF0.5446390350150272
aF0.8386705679454239
ababag2171
(g2187
g2173
Ntp2532
Rp2533
(lp2534
g2171
(g2191
g2173
Ntp2535
Rp2536
(lp2537
F52.134030379488664
aF11.668856850189805
aI0
abag2171
(g2195
g2173
Ntp2538
Rp2539
(lp2540
F0.0
aF0.0
aF0.5664062369248328
aF0.8241261886220156
ababag2171
(g2187
g2173
Ntp2541
Rp2542
(lp2543
g2171
(g2191
g2173
Ntp2544
Rp2545
(lp2546
F52.13965961007653
aF11.6835214972369
aI0
abag2171
(g2195
g2173
Ntp2547
Rp2548
(lp2549
F0.0
aF0.0
aF0.5877852522924731
aF0.8090169943749475
ababag2171
(g2187
g2173
Ntp2550
Rp2551
(lp2552
g2171
(g2191
g2173
Ntp2553
Rp2554
(lp2555
F52.14451363767334
aF11.698460658060608
aI0
abag2171
(g2195
g2173
Ntp2556
Rp2557
(lp2558
F0.0
aF0.0
aF0.6087614290087207
aF0.7933533402912352
ababag2171
(g2187
g2173
Ntp2559
Rp2560
(lp2561
g2171
(g2191
g2173
Ntp2562
Rp2563
(lp2564
F52.14857915772686
aF11.713633385459518
aI0
abag2171
(g2195
g2173
Ntp2565
Rp2566
(lp2567
F0.0
aF0.0
aF0.6293203910498375
aF0.7771459614569709
ababag2171
(g2187
g2173
Ntp2568
Rp2569
(lp2570
g2171
(g2191
g2173
Ntp2571
Rp2572
(lp2573
F52.14880693992892
aF11.714705016465707
aI0
abag2171
(g2195
g2173
Ntp2574
Rp2575
(lp2576
F0.0
aF0.0
aF0.6307383732553357
aF0.7759955570125469
ababag2171
(g2187
g2173
Ntp2577
Rp2578
(lp2579
g2171
(g2191
g2173
Ntp2580
Rp2581
(lp2582
F52.210108402630844
aF12.008375121635785
aI0
abag2171
(g2195
g2173
Ntp2583
Rp2584
(lp2585
F0.0
aF0.0
aF0.6307383732553357
aF0.7759955570125469
ababag2171
(g2187
g2173
Ntp2586
Rp2587
(lp2588
g2171
(g2191
g2173
Ntp2589
Rp2590
(lp2591
F52.27140986533277
aF12.30204522680586
aI0
abag2171
(g2195
g2173
Ntp2592
Rp2593
(lp2594
F0.0
aF0.0
aF0.6307383732553357
aF0.7759955570125469
ababag2171
(g2187
g2173
Ntp2595
Rp2596
(lp2597
g2171
(g2191
g2173
Ntp2598
Rp2599
(lp2600
F52.3327113280347
aF12.595715331975939
aI0
abag2171
(g2195
g2173
Ntp2601
Rp2602
(lp2603
F0.0
aF0.0
aF0.6307383732553357
aF0.7759955570125469
ababag2171
(g2187
g2173
Ntp2604
Rp2605
(lp2606
g2171
(g2191
g2173
Ntp2607
Rp2608
(lp2609
F52.394012790736625
aF12.889385437146016
aI0
abag2171
(g2195
g2173
Ntp2610
Rp2611
(lp2612
F0.0
aF0.0
aF0.6307383732553357
aF0.7759955570125469
ababag2171
(g2187
g2173
Ntp2613
Rp2614
(lp2615
g2171
(g2191
g2173
Ntp2616
Rp2617
(lp2618
F52.43899930985289
aF13.10489735509724
aI0
abag2171
(g2195
g2173
Ntp2619
Rp2620
(lp2621
F0.0
aF0.0
aF0.6307383732553357
aF0.7759955570125469
ababag2171
(g2187
g2173
Ntp2622
Rp2623
(lp2624
g2171
(g2191
g2173
Ntp2625
Rp2626
(lp2627
F52.442209046934195
aF13.120273885846927
aI0
abag2171
(g2195
g2173
Ntp2628
Rp2629
(lp2630
F0.0
aF0.0
aF0.6508354305509201
aF0.7592188369235833
ababag2171
(g2187
g2173
Ntp2631
Rp2632
(lp2633
g2171
(g2191
g2173
Ntp2634
Rp2635
(lp2636
F52.444609639741905
aF13.135797328255068
aI0
abag2171
(g2195
g2173
Ntp2637
Rp2638
(lp2639
F0.0
aF0.0
aF0.67048643775236
aF0.7419217861676193
ababag2171
(g2187
g2173
Ntp2640
Rp2641
(lp2642
g2171
(g2191
g2173
Ntp2643
Rp2644
(lp2645
F52.446194508417996
aF13.151425133645038
aI0
abag2171
(g2195
g2173
Ntp2646
Rp2647
(lp2648
F0.0
aF0.0
aF0.6896779270409095
aF0.7241162592792362
ababag2171
(g2187
g2173
Ntp2649
Rp2650
(lp2651
g2171
(g2191
g2173
Ntp2652
Rp2653
(lp2654
F52.44695930894758
aF13.167114467288542
aI0
abag2171
(g2195
g2173
Ntp2655
Rp2656
(lp2657
F0.0
aF0.0
aF0.7083967455284461
aF0.7058144592771572
ababag2171
(g2187
g2173
Ntp2658
Rp2659
(lp2660
g2171
(g2191
g2173
Ntp2661
Rp2662
(lp2663
F52.44690194506557
aF13.182822325812614
aI0
abag2171
(g2195
g2173
Ntp2664
Rp2665
(lp2666
F0.0
aF0.0
aF0.7266300642718045
aF0.6870289293009088
ababag2171
(g2187
g2173
Ntp2667
Rp2668
(lp2669
g2171
(g2191
g2173
Ntp2670
Rp2671
(lp2672
F52.446022574002384
aF13.19850565506888
aI0
abag2171
(g2195
g2173
Ntp2673
Rp2674
(lp2675
F0.0
aF0.0
aF0.7443653870650928
aF0.667772544014378
ababag2171
(g2187
g2173
Ntp2676
Rp2677
(lp2678
g2171
(g2191
g2173
Ntp2679
Rp2680
(lp2681
F52.444323606052976
aF13.214121468141984
aI0
abag2171
(g2195
g2173
Ntp2682
Rp2683
(lp2684
F0.0
aF0.0
aF0.7615905590039673
aF0.6480585007821629
ababag2171
(g2187
g2173
Ntp2685
Rp2686
(lp2687
g2171
(g2191
g2173
Ntp2688
Rp2689
(lp2690
F52.441809697970406
aF13.229626963173734
aI0
abag2171
(g2195
g2173
Ntp2691
Rp2692
(lp2693
F0.0
aF0.0
aF0.7782937748159978
aF0.6279003106247558
ababag2171
(g2187
g2173
Ntp2694
Rp2695
(lp2696
g2171
(g2191
g2173
Ntp2697
Rp2698
(lp2699
F52.438487740201985
aF13.244979640680022
aI0
abag2171
(g2195
g2173
Ntp2700
Rp2701
(lp2702
F0.0
aF0.0
aF0.7944635869514108
aF0.6073117889587671
ababag2171
(g2187
g2173
Ntp2703
Rp2704
(lp2705
g2171
(g2191
g2173
Ntp2706
Rp2707
(lp2708
F52.43436683800305
aF13.260137420038953
aI0
abag2171
(g2195
g2173
Ntp2709
Rp2710
(lp2711
F0.0
aF0.0
aF0.8100889134286691
aF0.5863070461285267
ababag2171
(g2187
g2173
Ntp2712
Rp2713
(lp2714
g2171
(g2191
g2173
Ntp2715
Rp2716
(lp2717
F52.42945828648009
aF13.275058754830912
aI0
abag2171
(g2195
g2173
Ntp2718
Rp2719
(lp2720
F0.0
aF0.0
aF0.8251590454295074
aF0.5649004777355603
ababag2171
(g2187
g2173
Ntp2721
Rp2722
(lp2723
g2171
(g2191
g2173
Ntp2724
Rp2725
(lp2726
F52.42377553963164
aF13.289702746714399
aI0
abag2171
(g2195
g2173
Ntp2727
Rp2728
(lp2729
F0.0
aF0.0
aF0.8396636546382223
aF0.5431067547725623
ababag2171
(g2187
g2173
Ntp2730
Rp2731
(lp2732
g2171
(g2191
g2173
Ntp2733
Rp2734
(lp2735
F52.417334173471815
aF13.304029257525556
aI0
abag2171
(g2195
g2173
Ntp2736
Rp2737
(lp2738
F0.0
aF0.0
aF0.8535928003201836
aF0.5209408135686311
ababag2171
(g2187
g2173
Ntp2739
Rp2740
(lp2741
g2171
(g2191
g2173
Ntp2742
Rp2743
(lp2744
F52.41065278408942
aF13.317024680488489
aI0
abag2171
(g2195
g2173
Ntp2745
Rp2746
(lp2747
F0.0
aF0.0
aF0.8660254037844389
aF0.4999999999999995
ababag2171
(g2187
g2173
Ntp2748
Rp2749
(lp2750
g2171
(g2191
g2173
Ntp2751
Rp2752
(lp2753
F52.39999882876873
aF13.3199997022748
aI0
abag2171
(g2195
g2173
Ntp2754
Rp2755
(lp2756
F0.0
aF0.0
aF0.8660254037844387
aF0.4999999999999999
ababag2171
(g2187
g2173
Ntp2757
Rp2758
(lp2759
g2171
(g2191
g2173
Ntp2760
Rp2761
(lp2762
F52.39214484713476
aF13.333603197506555
aI0
abag2171
(g2195
g2173
Ntp2763
Rp2764
(lp2765
F0.0
aF0.0
aF0.8788171126619654
aF0.4771587602596084
ababag2171
(g2187
g2173
Ntp2766
Rp2767
(lp2768
g2171
(g2191
g2173
Ntp2769
Rp2770
(lp2771
F52.38358967717845
aF13.346777003981753
aI0
abag2171
(g2195
g2173
Ntp2772
Rp2773
(lp2774
F0.0
aF0.0
aF0.8910065241883679
aF0.45399049973954664
ababag2171
(g2187
g2173
Ntp2775
Rp2776
(lp2777
g2171
(g2191
g2173
Ntp2778
Rp2779
(lp2780
F52.374356768026
aF13.359485013212542
aI0
abag2171
(g2195
g2173
Ntp2781
Rp2782
(lp2783
F0.0
aF0.0
aF0.9025852843498606
aF0.430511096808295
ababag2171
(g2187
g2173
Ntp2784
Rp2785
(lp2786
g2171
(g2191
g2173
Ntp2787
Rp2788
(lp2789
F52.364471426439614
aF13.371692393428942
aI0
abag2171
(g2195
g2173
Ntp2790
Rp2791
(lp2792
F0.0
aF0.0
aF0.9135454576426009
aF0.4067366430758002
ababag2171
(g2187
g2173
Ntp2793
Rp2794
(lp2795
g2171
(g2191
g2173
Ntp2796
Rp2797
(lp2798
F52.35396074745347
aF13.383365685050308
aI0
abag2171
(g2195
g2173
Ntp2799
Rp2800
(lp2801
F0.0
aF0.0
aF0.9238795325112868
aF0.3826834323650896
ababag2171
(g2187
g2173
Ntp2802
Rp2803
(lp2804
g2171
(g2191
g2173
Ntp2805
Rp2806
(lp2807
F52.342853540108074
aF13.394472892395703
aI0
abag2171
(g2195
g2173
Ntp2808
Rp2809
(lp2810
F0.0
aF0.0
aF0.9335804264972017
aF0.35836794954530016
ababag2171
(g2187
g2173
Ntp2811
Rp2812
(lp2813
g2171
(g2191
g2173
Ntp2814
Rp2815
(lp2816
F52.33118024848671
aF13.404983571381848
aI0
abag2171
(g2195
g2173
Ntp2817
Rp2818
(lp2819
F0.0
aF0.0
aF0.9426414910921784
aF0.3338068592337707
ababag2171
(g2187
g2173
Ntp2820
Rp2821
(lp2822
g2171
(g2191
g2173
Ntp2823
Rp2824
(lp2825
F52.31897286827031
aF13.414868912968231
aI0
abag2171
(g2195
g2173
Ntp2826
Rp2827
(lp2828
F0.0
aF0.0
aF0.9510565162951536
aF0.3090169943749473
ababag2171
(g2187
g2173
Ntp2829
Rp2830
(lp2831
g2171
(g2191
g2173
Ntp2832
Rp2833
(lp2834
F52.306264859039516
aF13.424101822120683
aI0
abag2171
(g2195
g2173
Ntp2835
Rp2836
(lp2837
F0.0
aF0.0
aF0.958819734868193
aF0.28401534470392253
ababag2171
(g2187
g2173
Ntp2838
Rp2839
(lp2840
g2171
(g2191
g2173
Ntp2841
Rp2842
(lp2843
F52.29309105256432
aF13.43265699207699
aI0
abag2171
(g2195
g2173
Ntp2844
Rp2845
(lp2846
F0.0
aF0.0
aF0.9659258262890683
aF0.2588190451025205
ababag2171
(g2187
g2173
Ntp2847
Rp2848
(lp2849
g2171
(g2191
g2173
Ntp2850
Rp2851
(lp2852
F52.279487557332565
aF13.440510973710964
aI0
abag2171
(g2195
g2173
Ntp2853
Rp2854
(lp2855
F0.0
aF0.0
aF0.9723699203976767
aF0.23344536385590525
ababag2171
(g2187
g2173
Ntp2856
Rp2857
(lp2858
g2171
(g2191
g2173
Ntp2859
Rp2860
(lp2861
F52.26549165957911
aF13.447642239804871
aI0
abag2171
(g2195
g2173
Ntp2862
Rp2863
(lp2864
F0.0
aF0.0
aF0.9781476007338057
aF0.20791169081775923
ababag2171
(g2187
g2173
Ntp2865
Rp2866
(lp2867
g2171
(g2191
g2173
Ntp2868
Rp2869
(lp2870
F52.25114172108686
aF13.454031244054034
aI0
abag2171
(g2195
g2173
Ntp2871
Rp2872
(lp2873
F0.0
aF0.0
aF0.9832549075639546
aF0.18223552549214744
ababag2171
(g2187
g2173
Ntp2874
Rp2875
(lp2876
g2171
(g2191
g2173
Ntp2877
Rp2878
(lp2879
F52.241940918484914
aF13.457563101266382
aI0
abag2171
(g2195
g2173
Ntp2880
Rp2881
(lp2882
F0.0
aF0.0
aF0.9861154718551853
aF0.16606106156418854
ababag2171
(g2187
g2173
Ntp2883
Rp2884
(lp2885
g2171
(g2191
g2173
Ntp2886
Rp2887
(lp2888
F51.95848668418561
aF13.555816330515068
aI0
abag2171
(g2195
g2173
Ntp2889
Rp2890
(lp2891
F0.0
aF0.0
aF0.9861154718551853
aF0.16606106156418854
ababag2171
(g2187
g2173
Ntp2892
Rp2893
(lp2894
g2171
(g2191
g2173
Ntp2895
Rp2896
(lp2897
F51.6750324498863
aF13.654069559763753
aI0
abag2171
(g2195
g2173
Ntp2898
Rp2899
(lp2900
F0.0
aF0.0
aF0.9861154718551853
aF0.16606106156418854
ababag2171
(g2187
g2173
Ntp2901
Rp2902
(lp2903
g2171
(g2191
g2173
Ntp2904
Rp2905
(lp2906
F51.391578215586996
aF13.752322789012439
aI0
abag2171
(g2195
g2173
Ntp2907
Rp2908
(lp2909
F0.0
aF0.0
aF0.9861154718551853
aF0.16606106156418854
ababag2171
(g2187
g2173
Ntp2910
Rp2911
(lp2912
g2171
(g2191
g2173
Ntp2913
Rp2914
(lp2915
F51.10812398128769
aF13.850576018261124
aI0
abag2171
(g2195
g2173
Ntp2916
Rp2917
(lp2918
F0.0
aF0.0
aF0.9861154718551853
aF0.16606106156418854
ababag2171
(g2187
g2173
Ntp2919
Rp2920
(lp2921
g2171
(g2191
g2173
Ntp2922
Rp2923
(lp2924
F50.82466974698839
aF13.94882924750981
aI0
abag2171
(g2195
g2173
Ntp2925
Rp2926
(lp2927
F0.0
aF0.0
aF0.9861154718551853
aF0.16606106156418854
ababag2171
(g2187
g2173
Ntp2928
Rp2929
(lp2930
g2171
(g2191
g2173
Ntp2931
Rp2932
(lp2933
F50.541215512689085
aF14.047082476758495
aI0
abag2171
(g2195
g2173
Ntp2934
Rp2935
(lp2936
F0.0
aF0.0
aF0.9861154718551853
aF0.16606106156418854
ababag2171
(g2187
g2173
Ntp2937
Rp2938
(lp2939
g2171
(g2191
g2173
Ntp2940
Rp2941
(lp2942
F50.25776127838978
aF14.145335706007181
aI0
abag2171
(g2195
g2173
Ntp2943
Rp2944
(lp2945
F0.0
aF0.0
aF0.9861154718551853
aF0.16606106156418854
ababag2171
(g2187
g2173
Ntp2946
Rp2947
(lp2948
g2171
(g2191
g2173
Ntp2949
Rp2950
(lp2951
F49.97430704409047
aF14.243588935255866
aI0
abag2171
(g2195
g2173
Ntp2952
Rp2953
(lp2954
F0.0
aF0.0
aF0.9861154718551853
aF0.16606106156418854
ababag2171
(g2187
g2173
Ntp2955
Rp2956
(lp2957
g2171
(g2191
g2173
Ntp2958
Rp2959
(lp2960
F49.69085280979117
aF14.341842164504552
aI0
abag2171
(g2195
g2173
Ntp2961
Rp2962
(lp2963
F0.0
aF0.0
aF0.9861154718551853
aF0.16606106156418854
ababag2171
(g2187
g2173
Ntp2964
Rp2965
(lp2966
g2171
(g2191
g2173
Ntp2967
Rp2968
(lp2969
F49.40739857549187
aF14.440095393753237
aI0
abag2171
(g2195
g2173
Ntp2970
Rp2971
(lp2972
F0.0
aF0.0
aF0.9861154718551853
aF0.16606106156418854
ababag2171
(g2187
g2173
Ntp2973
Rp2974
(lp2975
g2171
(g2191
g2173
Ntp2976
Rp2977
(lp2978
F49.12394434119256
aF14.538348623001923
aI0
abag2171
(g2195
g2173
Ntp2979
Rp2980
(lp2981
F0.0
aF0.0
aF0.9861154718551853
aF0.16606106156418854
ababag2171
(g2187
g2173
Ntp2982
Rp2983
(lp2984
g2171
(g2191
g2173
Ntp2985
Rp2986
(lp2987
F48.840490106893256
aF14.63660185225061
aI0
abag2171
(g2195
g2173
Ntp2988
Rp2989
(lp2990
F0.0
aF0.0
aF0.9861154718551853
aF0.16606106156418854
ababag2171
(g2187
g2173
Ntp2991
Rp2992
(lp2993
g2171
(g2191
g2173
Ntp2994
Rp2995
(lp2996
F48.55703587259395
aF14.734855081499294
aI0
abag2171
(g2195
g2173
Ntp2997
Rp2998
(lp2999
F0.0
aF0.0
aF0.9861154718551853
aF0.16606106156418854
ababag2171
(g2187
g2173
Ntp3000
Rp3001
(lp3002
g2171
(g2191
g2173
Ntp3003
Rp3004
(lp3005
F48.273581638294644
aF14.83310831074798
aI0
abag2171
(g2195
g2173
Ntp3006
Rp3007
(lp3008
F0.0
aF0.0
aF0.9861154718551853
aF0.16606106156418854
ababag2171
(g2187
g2173
Ntp3009
Rp3010
(lp3011
g2171
(g2191
g2173
Ntp3012
Rp3013
(lp3014
F47.990127403995345
aF14.931361539996665
aI0
abag2171
(g2195
g2173
Ntp3015
Rp3016
(lp3017
F0.0
aF0.0
aF0.9861154718551853
aF0.16606106156418854
ababag2171
(g2187
g2173
Ntp3018
Rp3019
(lp3020
g2171
(g2191
g2173
Ntp3021
Rp3022
(lp3023
F47.70667316969604
aF15.02961476924535
aI0
abag2171
(g2195
g2173
Ntp3024
Rp3025
(lp3026
F0.0
aF0.0
aF0.9861154718551853
aF0.16606106156418854
ababag2171
(g2187
g2173
Ntp3027
Rp3028
(lp3029
g2171
(g2191
g2173
Ntp3030
Rp3031
(lp3032
F47.42321893539673
aF15.127867998494038
aI0
abag2171
(g2195
g2173
Ntp3033
Rp3034
(lp3035
F0.0
aF0.0
aF0.9861154718551853
aF0.16606106156418854
ababag2171
(g2187
g2173
Ntp3036
Rp3037
(lp3038
g2171
(g2191
g2173
Ntp3039
Rp3040
(lp3041
F47.13976470109743
aF15.226121227742723
aI0
abag2171
(g2195
g2173
Ntp3042
Rp3043
(lp3044
F0.0
aF0.0
aF0.9861154718551853
aF0.16606106156418854
ababag2171
(g2187
g2173
Ntp3045
Rp3046
(lp3047
g2171
(g2191
g2173
Ntp3048
Rp3049
(lp3050
F47.10638603359216
aF15.237691214970175
aI0
abag2171
(g2195
g2173
Ntp3051
Rp3052
(lp3053
F0.0
aF0.0
aF0.9861154718551853
aF0.16606106156418854
ababag2171
(g2187
g2173
Ntp3054
Rp3055
(lp3056
g2171
(g2191
g2173
Ntp3057
Rp3058
(lp3059
F47.09154440459044
aF15.242835742023495
aI0
abag2171
(g2195
g2173
Ntp3060
Rp3061
(lp3062
F0.0
aF0.0
aF0.9814305828872477
aF0.19181765031820508
ababag2171
(g2187
g2173
Ntp3063
Rp3064
(lp3065
g2171
(g2191
g2173
Ntp3066
Rp3067
(lp3068
F47.076992359268196
aF15.248749969527292
aI0
abag2171
(g2195
g2173
Ntp3069
Rp3070
(lp3071
F0.0
aF0.0
aF0.9760730704213506
aF0.21744277683619898
ababag2171
(g2187
g2173
Ntp3072
Rp3073
(lp3074
g2171
(g2191
g2173
Ntp3075
Rp3076
(lp3077
F47.062769783770165
aF15.25541768699507
aI0
abag2171
(g2195
g2173
Ntp3078
Rp3079
(lp3080
F0.0
aF0.0
aF0.9700466062289246
aF0.2429188789364586
ababag2171
(g2187
g2173
Ntp3081
Rp3082
(lp3083
g2171
(g2191
g2173
Ntp3084
Rp3085
(lp3086
F47.048915661187195
aF15.262820618676722
aI0
abag2171
(g2195
g2173
Ntp3087
Rp3088
(lp3089
F0.0
aF0.0
aF0.9633553205474983
aF0.2682284965711637
ababag2171
(g2187
g2173
Ntp3090
Rp3091
(lp3092
g2171
(g2191
g2173
Ntp3093
Rp3094
(lp3095
F47.035467964706285
aF15.270938473651075
aI0
abag2171
(g2195
g2173
Ntp3096
Rp3097
(lp3098
F0.0
aF0.0
aF0.9560037992500408
aF0.29335428379263134
ababag2171
(g2187
g2173
Ntp3099
Rp3100
(lp3101
g2171
(g2191
g2173
Ntp3102
Rp3103
(lp3104
F47.02246355352876
aF15.27974900144191
aI0
abag2171
(g2195
g2173
Ntp3105
Rp3106
(lp3107
F0.0
aF0.0
aF0.9479970807020326
aF0.3182790206413611
ababag2171
(g2187
g2173
Ntp3108
Rp3109
(lp3110
g2171
(g2191
g2173
Ntp3111
Rp3112
(lp3113
F47.00993807184173
aF15.289228053004969
aI0
abag2171
(g2195
g2173
Ntp3114
Rp3115
(lp3116
F0.0
aF0.0
aF0.939340652308422
aF0.34298562494773494
ababag2171
(g2187
g2173
Ntp3117
Rp3118
(lp3119
g2171
(g2191
g2173
Ntp3120
Rp3121
(lp3122
F46.99792585111986
aF15.299349646918794
aI0
abag2171
(g2195
g2173
Ntp3123
Rp3124
(lp3125
F0.0
aF0.0
aF0.9300404467528317
aF0.3674571640392838
ababag2171
(g2187
g2173
Ntp3126
Rp3127
(lp3128
g2171
(g2191
g2173
Ntp3129
Rp3130
(lp3131
F46.986459816025196
aF15.310086040598012
aI0
abag2171
(g2195
g2173
Ntp3132
Rp3133
(lp3134
F0.0
aF0.0
aF0.920102837931594
aF0.39167686634549526
ababag2171
(g2187
g2173
Ntp3135
Rp3136
(lp3137
g2171
(g2191
g2173
Ntp3138
Rp3139
(lp3140
F46.980116070688716
aF15.316682258075241
aI0
abag2171
(g2195
g2173
Ntp3141
Rp3142
(lp3143
F0.0
aF0.0
aF0.9140218748457284
aF0.4056649014932148
ababag2171
(g2187
g2173
Ntp3144
Rp3145
(lp3146
g2171
(g2191
g2173
Ntp3147
Rp3148
(lp3149
F46.97867082494486
aF15.315774691959303
aI0
abag2171
(g2195
g2173
Ntp3150
Rp3151
(lp3152
F0.0
aF0.0
aF0.9140218748457285
aF0.4056649014932146
ababag2171
(g2187
g2173
Ntp3153
Rp3154
(lp3155
g2171
(g2191
g2173
Ntp3156
Rp3157
(lp3158
F46.968132792597885
aF15.32742329635131
aI0
abag2171
(g2195
g2173
Ntp3159
Rp3160
(lp3161
F0.0
aF0.0
aF0.9243277315341308
aF0.381599586893078
ababag2171
(g2187
g2173
Ntp3162
Rp3163
(lp3164
g2171
(g2191
g2173
Ntp3165
Rp3166
(lp3167
F46.95699956140825
aF15.33850441873604
aI0
abag2171
(g2195
g2173
Ntp3168
Rp3169
(lp3170
F0.0
aF0.0
aF0.9340001001665402
aF0.35727274299740935
ababag2171
(g2187
g2173
Ntp3171
Rp3172
(lp3173
g2171
(g2191
g2173
Ntp3174
Rp3175
(lp3176
F46.945301646788785
aF15.348987686527279
aI0
abag2171
(g2195
g2173
Ntp3177
Rp3178
(lp3179
F0.0
aF0.0
aF0.9430323517846413
aF0.3327010422098622
ababag2171
(g2187
g2173
Ntp3180
Rp3181
(lp3182
g2171
(g2191
g2173
Ntp3183
Rp3184
(lp3185
F46.93307111191034
aF15.358844365816694
aI0
abag2171
(g2195
g2173
Ntp3186
Rp3187
(lp3188
F0.0
aF0.0
aF0.9514182961343463
aF0.3079013247467723
ababag2171
(g2187
g2173
Ntp3189
Rp3190
(lp3191
g2171
(g2191
g2173
Ntp3192
Rp3193
(lp3194
F46.92034147981889
aF15.36804744013148
aI0
abag2171
(g2195
g2173
Ntp3195
Rp3196
(lp3197
F0.0
aF0.0
aF0.9591521859082852
aF0.2828905870957151
ababag2171
(g2187
g2173
Ntp3198
Rp3199
(lp3200
g2171
(g2191
g2173
Ntp3201
Rp3202
(lp3203
F46.90714764155116
aF15.376571684484642
aI0
abag2171
(g2195
g2173
Ntp3204
Rp3205
(lp3206
F0.0
aF0.0
aF0.9662287206847232
aF0.2576859703669628
ababag2171
(g2187
g2173
Ntp3207
Rp3208
(lp3209
g2171
(g2191
g2173
Ntp3210
Rp3211
(lp3212
F46.893525760500765
aF15.384393734514916
aI0
abag2171
(g2195
g2173
Ntp3213
Rp3214
(lp3215
F0.0
aF0.0
aF0.9726430505602054
aF0.2323047485458224
ababag2171
(g2187
g2173
Ntp3216
Rp3217
(lp3218
g2171
(g2191
g2173
Ntp3219
Rp3220
(lp3221
F46.879513173296814
aF15.391492150526878
aI0
abag2171
(g2195
g2173
Ntp3222
Rp3223
(lp3224
F0.0
aF0.0
aF0.9783907794734381
aF0.2067643166539096
ababag2171
(g2187
g2173
Ntp3225
Rp3226
(lp3227
g2171
(g2191
g2173
Ntp3228
Rp3229
(lp3230
F46.86514828746682
aF15.397847476255638
aI0
abag2171
(g2195
g2173
Ntp3231
Rp3232
(lp3233
F0.0
aF0.0
aF0.9834679682181297
aF0.1810821788274705
ababag2171
(g2187
g2173
Ntp3234
Rp3235
(lp3236
g2171
(g2191
g2173
Ntp3237
Rp3238
(lp3239
F46.850470476164375
aF15.403442292195132
aI0
abag2171
(g2195
g2173
Ntp3240
Rp3241
(lp3242
F0.0
aF0.0
aF0.9878711371427256
aF0.1552759363209197
ababag2171
(g2187
g2173
Ntp3243
Rp3244
(lp3245
g2171
(g2191
g2173
Ntp3246
Rp3247
(lp3248
F46.842603931035846
aF15.405977902309658
aI0
abag2171
(g2195
g2173
Ntp3249
Rp3250
(lp3251
F0.0
aF0.0
aF0.9899162956435165
aF0.14165354785326784
ababag2171
(g2187
g2173
Ntp3252
Rp3253
(lp3254
g2171
(g2191
g2173
Ntp3255
Rp3256
(lp3257
F46.5546433676075
aF15.490112995523058
aI0
abag2171
(g2195
g2173
Ntp3258
Rp3259
(lp3260
F0.0
aF0.0
aF0.9899162956435165
aF0.14165354785326784
ababag2171
(g2187
g2173
Ntp3261
Rp3262
(lp3263
g2171
(g2191
g2173
Ntp3264
Rp3265
(lp3266
F46.26668280417915
aF15.574248088736459
aI0
abag2171
(g2195
g2173
Ntp3267
Rp3268
(lp3269
F0.0
aF0.0
aF0.9899162956435165
aF0.14165354785326784
ababag2171
(g2187
g2173
Ntp3270
Rp3271
(lp3272
g2171
(g2191
g2173
Ntp3273
Rp3274
(lp3275
F45.9787222407508
aF15.65838318194986
aI0
abag2171
(g2195
g2173
Ntp3276
Rp3277
(lp3278
F0.0
aF0.0
aF0.9899162956435165
aF0.14165354785326784
ababag2171
(g2187
g2173
Ntp3279
Rp3280
(lp3281
g2171
(g2191
g2173
Ntp3282
Rp3283
(lp3284
F45.69076167732245
aF15.742518275163262
aI0
abag2171
(g2195
g2173
Ntp3285
Rp3286
(lp3287
F0.0
aF0.0
aF0.9899162956435165
aF0.14165354785326784
ababag2171
(g2187
g2173
Ntp3288
Rp3289
(lp3290
g2171
(g2191
g2173
Ntp3291
Rp3292
(lp3293
F45.4028011138941
aF15.826653368376663
aI0
abag2171
(g2195
g2173
Ntp3294
Rp3295
(lp3296
F0.0
aF0.0
aF0.9899162956435165
aF0.14165354785326784
ababag2171
(g2187
g2173
Ntp3297
Rp3298
(lp3299
g2171
(g2191
g2173
Ntp3300
Rp3301
(lp3302
F45.11484055046575
aF15.910788461590064
aI0
abag2171
(g2195
g2173
Ntp3303
Rp3304
(lp3305
F0.0
aF0.0
aF0.9899162956435165
aF0.14165354785326784
ababag2171
(g2187
g2173
Ntp3306
Rp3307
(lp3308
g2171
(g2191
g2173
Ntp3309
Rp3310
(lp3311
F44.8268799870374
aF15.994923554803465
aI0
abag2171
(g2195
g2173
Ntp3312
Rp3313
(lp3314
F0.0
aF0.0
aF0.9899162956435165
aF0.14165354785326784
ababag2171
(g2187
g2173
Ntp3315
Rp3316
(lp3317
g2171
(g2191
g2173
Ntp3318
Rp3319
(lp3320
F44.53891942360905
aF16.079058648016865
aI0
abag2171
(g2195
g2173
Ntp3321
Rp3322
(lp3323
F0.0
aF0.0
aF0.9899162956435165
aF0.14165354785326784
ababag2171
(g2187
g2173
Ntp3324
Rp3325
(lp3326
g2171
(g2191
g2173
Ntp3327
Rp3328
(lp3329
F44.2509588601807
aF16.163193741230266
aI0
abag2171
(g2195
g2173
Ntp3330
Rp3331
(lp3332
F0.0
aF0.0
aF0.9899162956435165
aF0.14165354785326784
ababag2171
(g2187
g2173
Ntp3333
Rp3334
(lp3335
g2171
(g2191
g2173
Ntp3336
Rp3337
(lp3338
F43.96299829675235
aF16.247328834443667
aI0
abag2171
(g2195
g2173
Ntp3339
Rp3340
(lp3341
F0.0
aF0.0
aF0.9899162956435165
aF0.14165354785326784
ababag2171
(g2187
g2173
Ntp3342
Rp3343
(lp3344
g2171
(g2191
g2173
Ntp3345
Rp3346
(lp3347
F43.675037733324004
aF16.33146392765707
aI0
abag2171
(g2195
g2173
Ntp3348
Rp3349
(lp3350
F0.0
aF0.0
aF0.9899162956435165
aF0.14165354785326784
ababag2171
(g2187
g2173
Ntp3351
Rp3352
(lp3353
g2171
(g2191
g2173
Ntp3354
Rp3355
(lp3356
F43.387077169895655
aF16.41559902087047
aI0
abag2171
(g2195
g2173
Ntp3357
Rp3358
(lp3359
F0.0
aF0.0
aF0.9899162956435165
aF0.14165354785326784
ababag2171
(g2187
g2173
Ntp3360
Rp3361
(lp3362
g2171
(g2191
g2173
Ntp3363
Rp3364
(lp3365
F43.099116606467305
aF16.49973411408387
aI0
abag2171
(g2195
g2173
Ntp3366
Rp3367
(lp3368
F0.0
aF0.0
aF0.9899162956435165
aF0.14165354785326784
ababag2171
(g2187
g2173
Ntp3369
Rp3370
(lp3371
g2171
(g2191
g2173
Ntp3372
Rp3373
(lp3374
F42.811156043038956
aF16.583869207297273
aI0
abag2171
(g2195
g2173
Ntp3375
Rp3376
(lp3377
F0.0
aF0.0
aF0.9899162956435165
aF0.14165354785326784
ababag2171
(g2187
g2173
Ntp3378
Rp3379
(lp3380
g2171
(g2191
g2173
Ntp3381
Rp3382
(lp3383
F42.52319547961061
aF16.668004300510674
aI0
abag2171
(g2195
g2173
Ntp3384
Rp3385
(lp3386
F0.0
aF0.0
aF0.9899162956435165
aF0.14165354785326784
ababag2171
(g2187
g2173
Ntp3387
Rp3388
(lp3389
g2171
(g2191
g2173
Ntp3390
Rp3391
(lp3392
F42.23523491618226
aF16.75213939372407
aI0
abag2171
(g2195
g2173
Ntp3393
Rp3394
(lp3395
F0.0
aF0.0
aF0.9899162956435165
aF0.14165354785326784
ababag2171
(g2187
g2173
Ntp3396
Rp3397
(lp3398
g2171
(g2191
g2173
Ntp3399
Rp3400
(lp3401
F41.94727435275391
aF16.836274486937473
aI0
abag2171
(g2195
g2173
Ntp3402
Rp3403
(lp3404
F0.0
aF0.0
aF0.9899162956435165
aF0.14165354785326784
ababag2171
(g2187
g2173
Ntp3405
Rp3406
(lp3407
g2171
(g2191
g2173
Ntp3408
Rp3409
(lp3410
F41.65931378932556
aF16.920409580150874
aI0
abag2171
(g2195
g2173
Ntp3411
Rp3412
(lp3413
F0.0
aF0.0
aF0.9899162956435165
aF0.14165354785326784
ababag2171
(g2187
g2173
Ntp3414
Rp3415
(lp3416
g2171
(g2191
g2173
Ntp3417
Rp3418
(lp3419
F41.37135322589721
aF17.004544673364276
aI0
abag2171
(g2195
g2173
Ntp3420
Rp3421
(lp3422
F0.0
aF0.0
aF0.9899162956435165
aF0.14165354785326784
ababag2171
(g2187
g2173
Ntp3423
Rp3424
(lp3425
g2171
(g2191
g2173
Ntp3426
Rp3427
(lp3428
F41.08339266246886
aF17.088679766577677
aI0
abag2171
(g2195
g2173
Ntp3429
Rp3430
(lp3431
F0.0
aF0.0
aF0.9899162956435165
aF0.14165354785326784
ababag2171
(g2187
g2173
Ntp3432
Rp3433
(lp3434
g2171
(g2191
g2173
Ntp3435
Rp3436
(lp3437
F40.88730098713835
aF17.145972998629606
aI0
abag2171
(g2195
g2173
Ntp3438
Rp3439
(lp3440
F0.0
aF0.0
aF0.9899162956435165
aF0.14165354785326784
ababag2171
(g2187
g2173
Ntp3441
Rp3442
(lp3443
g2171
(g2191
g2173
Ntp3444
Rp3445
(lp3446
F40.87222340729519
aF17.150378301808743
aI0
abag2171
(g2195
g2173
Ntp3447
Rp3448
(lp3449
F0.0
aF0.0
aF0.9858690184529287
aF0.16751799442047638
ababag2171
(g2187
g2173
Ntp3450
Rp3451
(lp3452
g2171
(g2191
g2173
Ntp3453
Rp3454
(lp3455
F40.87331800039154
aF17.149995257779654
aI0
abag2171
(g2195
g2173
Ntp3456
Rp3457
(lp3458
F0.0
aF0.0
aF0.9861909554578832
aF0.16561219572563943
ababag2171
(g2187
g2173
Ntp3459
Rp3460
(lp3461
g2171
(g2191
g2173
Ntp3462
Rp3463
(lp3464
F40.87117096145812
aF17.146885762141892
aI0
abag2171
(g2195
g2173
Ntp3465
Rp3466
(lp3467
F0.0
aF0.0
aF0.9861909554578832
aF0.1656121957256392
ababag2171
(g2187
g2173
Ntp3468
Rp3469
(lp3470
g2171
(g2191
g2173
Ntp3471
Rp3472
(lp3473
F40.856324655353944
aF17.15201677618284
aI0
abag2171
(g2195
g2173
Ntp3474
Rp3475
(lp3476
F0.0
aF0.0
aF0.9901882343347799
aF0.13973997489970794
ababag2171
(g2187
g2173
Ntp3477
Rp3478
(lp3479
g2171
(g2191
g2173
Ntp3480
Rp3481
(lp3482
F40.84123015906998
aF17.156363762720733
aI0
abag2171
(g2195
g2173
Ntp3483
Rp3484
(lp3485
F0.0
aF0.0
aF0.9935068876568695
aF0.11377198327514769
ababag2171
(g2187
g2173
Ntp3486
Rp3487
(lp3488
g2171
(g2191
g2173
Ntp3489
Rp3490
(lp3491
F40.82592884557133
aF17.159914806967627
aI0
abag2171
(g2195
g2173
Ntp3492
Rp3493
(lp3494
F0.0
aF0.0
aF0.9961446409849354
aF0.08772601801628824
ababag2171
(g2187
g2173
Ntp3495
Rp3496
(lp3497
g2171
(g2191
g2173
Ntp3498
Rp3499
(lp3500
F40.810462654694724
aF17.16266017575807
aI0
abag2171
(g2195
g2173
Ntp3501
Rp3502
(lp3503
F0.0
aF0.0
aF0.9980996865346053
aF0.06161992972669281
ababag2171
(g2187
g2173
Ntp3504
Rp3505
(lp3506
g2171
(g2191
g2173
Ntp3507
Rp3508
(lp3509
F40.7948739781943
aF17.16459234422704
aI0
abag2171
(g2195
g2173
Ntp3510
Rp3511
(lp3512
F0.0
aF0.0
aF0.9993706844153163
aF0.03547161021524665
ababag2171
(g2187
g2173
Ntp3513
Rp3514
(lp3515
g2171
(g2191
g2173
Ntp3516
Rp3517
(lp3518
F40.779205543548805
aF17.16570601643506
aI0
abag2171
(g2195
g2173
Ntp3519
Rp3520
(lp3521
F0.0
aF0.0
aF0.9999567635486084
aF0.009298980234005641
ababag2171
(g2187
g2173
Ntp3522
Rp3523
(lp3524
g2171
(g2191
g2173
Ntp3525
Rp3526
(lp3527
F40.76350029684849
aF17.16599813988402
aI0
abag2171
(g2195
g2173
Ntp3528
Rp3529
(lp3530
F0.0
aF0.0
aF-0.9998575222651193
aF0.01688002280379367
ababag2171
(g2187
g2173
Ntp3531
Rp3532
(lp3533
g2171
(g2191
g2173
Ntp3534
Rp3535
(lp3536
F40.74780128508291
aF17.16546791388386
aI0
abag2171
(g2195
g2173
Ntp3537
Rp3538
(lp3539
F0.0
aF0.0
aF-0.9990730285798671
aF0.043047457117138865
ababag2171
(g2187
g2173
Ntp3540
Rp3541
(lp3542
g2171
(g2191
g2173
Ntp3543
Rp3544
(lp3545
F40.732151538152074
aF17.16411679174718
aI0
abag2171
(g2195
g2173
Ntp3546
Rp3547
(lp3548
F0.0
aF0.0
aF-0.9976038201456378
aF0.06918538885364443
ababag2171
(g2187
g2173
Ntp3549
Rp3550
(lp3551
g2171
(g2191
g2173
Ntp3552
Rp3553
(lp3554
F40.71659395092454
aF17.161948476805847
aI0
abag2171
(g2195
g2173
Ntp3555
Rp3556
(lp3557
F0.0
aF0.0
aF-0.9954509038845033
aF0.09527590438051722
ababag2171
(g2187
g2173
Ntp3558
Rp3559
(lp3560
g2171
(g2191
g2173
Ntp3561
Rp3562
(lp3563
F40.70117116566549
aF17.158968912260395
aI0
abag2171
(g2195
g2173
Ntp3564
Rp3565
(lp3566
F0.0
aF0.0
aF-0.9926157552977285
aF0.121301122561665
ababag2171
(g2187
g2173
Ntp3567
Rp3568
(lp3569
g2171
(g2191
g2173
Ntp3570
Rp3571
(lp3572
F40.6859254551573
aF17.155186264890137
aI0
abag2171
(g2195
g2173
Ntp3573
Rp3574
(lp3575
F0.0
aF0.0
aF-0.9891003174545359
aF0.1472432070125353
ababag2171
(g2187
g2173
Ntp3576
Rp3577
(lp3578
g2171
(g2191
g2173
Ntp3579
Rp3580
(lp3581
F40.67089860683276
aF17.150610902668586
aI0
abag2171
(g2195
g2173
Ntp3582
Rp3583
(lp3584
F0.0
aF0.0
aF-0.9849069996604233
aF0.17308437832428147
ababag2171
(g2187
g2173
Ntp3585
Rp3586
(lp3587
g2171
(g2191
g2173
Ntp3588
Rp3589
(lp3590
F40.65613180823861
aF17.145255366345562
aI0
abag2171
(g2195
g2173
Ntp3591
Rp3592
(lp3593
F0.0
aF0.0
aF-0.9800386758059457
aF0.19880692624888183
ababag2171
(g2187
g2173
Ntp3594
Rp3595
(lp3596
g2171
(g2191
g2173
Ntp3597
Rp3598
(lp3599
F40.641665534143385
aF17.13913433507387
aI0
abag2171
(g2195
g2173
Ntp3600
Rp3601
(lp3602
F0.0
aF0.0
aF-0.974498682397095
aF0.22439322183685895
ababag2171
(g2187
g2173
Ntp3603
Rp3604
(lp3605
g2171
(g2191
g2173
Ntp3606
Rp3607
(lp3608
F40.627539435598834
aF17.132264586174756
aI0
abag2171
(g2195
g2173
Ntp3609
Rp3610
(lp3611
F0.0
aF0.0
aF-0.9682908162686246
aF0.2498257295192804
ababag2171
(g2187
g2173
Ntp3612
Rp3613
(lp3614
g2171
(g2191
g2173
Ntp3615
Rp3616
(lp3617
F40.61379223125918
aF17.12466494915244
aI0
abag2171
(g2195
g2173
Ntp3618
Rp3619
(lp3620
F0.0
aF0.0
aF-0.9614193319818892
aF0.27508701912576294
ababag2171
(g2187
g2173
Ntp3621
Rp3622
(lp3623
g2171
(g2191
g2173
Ntp3624
Rp3625
(lp3626
F40.60922687566404
aF17.12181946116643
aI0
abag2171
(g2195
g2173
Ntp3627
Rp3628
(lp3629
F0.0
aF0.0
aF-0.9589143273777126
aF0.2836958102435583
ababag2171
(g2187
g2173
Ntp3630
Rp3631
(lp3632
g2171
(g2191
g2173
Ntp3633
Rp3634
(lp3635
F40.35751686331389
aF16.958595474930686
aI0
abag2171
(g2195
g2173
Ntp3636
Rp3637
(lp3638
F0.0
aF0.0
aF-0.9589143273777126
aF0.2836958102435583
ababag2171
(g2187
g2173
Ntp3639
Rp3640
(lp3641
g2171
(g2191
g2173
Ntp3642
Rp3643
(lp3644
F40.10580685096374
aF16.79537148869494
aI0
abag2171
(g2195
g2173
Ntp3645
Rp3646
(lp3647
F0.0
aF0.0
aF-0.9589143273777126
aF0.2836958102435583
ababag2171
(g2187
g2173
Ntp3648
Rp3649
(lp3650
g2171
(g2191
g2173
Ntp3651
Rp3652
(lp3653
F40.01249814233063
aF16.734864482114606
aI0
abag2171
(g2195
g2173
Ntp3654
Rp3655
(lp3656
F0.0
aF0.0
aF-0.9589143273777126
aF0.2836958102435583
ababag2171
(g2187
g2173
Ntp3657
Rp3658
(lp3659
g2171
(g2191
g2173
Ntp3660
Rp3661
(lp3662
F39.99931863690339
aF16.726318094180474
aI0
abag2171
(g2195
g2173
Ntp3663
Rp3664
(lp3665
F0.0
aF0.0
aF-0.9660120219470457
aF0.2584971439954035
ababag2171
(g2187
g2173
Ntp3666
Rp3667
(lp3668
g2171
(g2191
g2173
Ntp3669
Rp3670
(lp3671
F39.99949186094963
aF16.7264179512548
aI0
abag2171
(g2195
g2173
Ntp3672
Rp3673
(lp3674
F0.0
aF0.0
aF-0.9659258262890684
aF0.2588190451025203
ababag2171
(g2187
g2173
Ntp3675
Rp3676
(lp3677
g2171
(g2191
g2173
Ntp3678
Rp3679
(lp3680
F39.99999910593033
aF16.719999626278877
aI0
abag2171
(g2195
g2173
Ntp3681
Rp3682
(lp3683
F0.0
aF0.0
aF-0.9659258262890683
aF0.25881904510252074
ababag2171
(g2187
g2173
Ntp3684
Rp3685
(lp3686
g2171
(g2191
g2173
Ntp3687
Rp3688
(lp3689
F39.98639561069857
aF16.712145644644902
aI0
abag2171
(g2195
g2173
Ntp3690
Rp3691
(lp3692
F0.0
aF0.0
aF-0.9723699203976766
aF0.23344536385590547
ababag2171
(g2187
g2173
Ntp3693
Rp3694
(lp3695
g2171
(g2191
g2173
Ntp3696
Rp3697
(lp3698
F39.97239971294512
aF16.705014378550995
aI0
abag2171
(g2195
g2173
Ntp3699
Rp3700
(lp3701
F0.0
aF0.0
aF-0.9781476007338057
aF0.20791169081775923
ababag2171
(g2187
g2173
Ntp3702
Rp3703
(lp3704
g2171
(g2191
g2173
Ntp3705
Rp3706
(lp3707
F39.95804977445287
aF16.698625374301834
aI0
abag2171
(g2195
g2173
Ntp3708
Rp3709
(lp3710
F0.0
aF0.0
aF-0.9832549075639546
aF0.18223552549214744
ababag2171
(g2187
g2173
Ntp3711
Rp3712
(lp3713
g2171
(g2191
g2173
Ntp3714
Rp3715
(lp3716
F39.94409445953108
aF16.693268430805766
aI0
abag2171
(g2195
g2173
Ntp3717
Rp3718
(lp3719
F0.0
aF0.0
aF-0.987489451184666
aF0.15768507792117517
ababag2171
(g2187
g2173
Ntp3720
Rp3721
(lp3722
g2171
(g2191
g2173
Ntp3723
Rp3724
(lp3725
F39.65901320981048
aF16.59984102017193
aI0
abag2171
(g2195
g2173
Ntp3726
Rp3727
(lp3728
F0.0
aF0.0
aF-0.987489451184666
aF0.15768507792117517
ababag2171
(g2187
g2173
Ntp3729
Rp3730
(lp3731
g2171
(g2191
g2173
Ntp3732
Rp3733
(lp3734
F39.37393196008989
aF16.506413609538093
aI0
abag2171
(g2195
g2173
Ntp3735
Rp3736
(lp3737
F0.0
aF0.0
aF-0.987489451184666
aF0.15768507792117517
ababag2171
(g2187
g2173
Ntp3738
Rp3739
(lp3740
g2171
(g2191
g2173
Ntp3741
Rp3742
(lp3743
F39.08885071036929
aF16.41298619890426
aI0
abag2171
(g2195
g2173
Ntp3744
Rp3745
(lp3746
F0.0
aF0.0
aF-0.987489451184666
aF0.15768507792117517
ababag2171
(g2187
g2173
Ntp3747
Rp3748
(lp3749
g2171
(g2191
g2173
Ntp3750
Rp3751
(lp3752
F38.803769460648695
aF16.319558788270424
aI0
abag2171
(g2195
g2173
Ntp3753
Rp3754
(lp3755
F0.0
aF0.0
aF-0.987489451184666
aF0.15768507792117517
ababag2171
(g2187
g2173
Ntp3756
Rp3757
(lp3758
g2171
(g2191
g2173
Ntp3759
Rp3760
(lp3761
F38.518688210928104
aF16.226131377636587
aI0
abag2171
(g2195
g2173
Ntp3762
Rp3763
(lp3764
F0.0
aF0.0
aF-0.987489451184666
aF0.15768507792117517
ababag2171
(g2187
g2173
Ntp3765
Rp3766
(lp3767
g2171
(g2191
g2173
Ntp3768
Rp3769
(lp3770
F38.23360696120751
aF16.13270396700275
aI0
abag2171
(g2195
g2173
Ntp3771
Rp3772
(lp3773
F0.0
aF0.0
aF-0.987489451184666
aF0.15768507792117517
ababag2171
(g2187
g2173
Ntp3774
Rp3775
(lp3776
g2171
(g2191
g2173
Ntp3777
Rp3778
(lp3779
F37.94852571148691
aF16.039276556368918
aI0
abag2171
(g2195
g2173
Ntp3780
Rp3781
(lp3782
F0.0
aF0.0
aF-0.987489451184666
aF0.15768507792117517
ababag2171
(g2187
g2173
Ntp3783
Rp3784
(lp3785
g2171
(g2191
g2173
Ntp3786
Rp3787
(lp3788
F37.66344446176631
aF15.945849145735082
aI0
abag2171
(g2195
g2173
Ntp3789
Rp3790
(lp3791
F0.0
aF0.0
aF-0.987489451184666
aF0.15768507792117517
ababag2171
(g2187
g2173
Ntp3792
Rp3793
(lp3794
g2171
(g2191
g2173
Ntp3795
Rp3796
(lp3797
F37.65723969190759
aF15.943815705857686
aI0
abag2171
(g2195
g2173
Ntp3798
Rp3799
(lp3800
F0.0
aF0.0
aF-0.987489451184666
aF0.15768507792117517
ababag2171
(g2187
g2173
Ntp3801
Rp3802
(lp3803
g2171
(g2191
g2173
Ntp3804
Rp3805
(lp3806
F37.64231287257761
aF15.938923858076167
aI0
abag2171
(g2195
g2173
Ntp3807
Rp3808
(lp3809
F0.0
aF0.0
aF-0.9830233490791789
aF0.18348050350147524
ababag2171
(g2187
g2173
Ntp3810
Rp3811
(lp3812
g2171
(g2191
g2173
Ntp3813
Rp3814
(lp3815
F37.6276625294662
aF15.933257505038718
aI0
abag2171
(g2195
g2173
Ntp3816
Rp3817
(lp3818
F0.0
aF0.0
aF-0.9778835318733446
aF0.20915018070973126
ababag2171
(g2187
g2173
Ntp3819
Rp3820
(lp3821
g2171
(g2191
g2173
Ntp3822
Rp3823
(lp3824
F37.613328818145476
aF15.926832177825151
aI0
abag2171
(g2195
g2173
Ntp3825
Rp3826
(lp3827
F0.0
aF0.0
aF-0.972073522141137
aF0.23467651683141325
ababag2171
(g2187
g2173
Ntp3828
Rp3829
(lp3830
g2171
(g2191
g2173
Ntp3831
Rp3832
(lp3833
F37.60002713511257
aF15.920012142145007
aI0
abag2171
(g2195
g2173
Ntp3834
Rp3835
(lp3836
F0.0
aF0.0
aF-0.9659258262890683
aF0.25881904510252074
ababag2171
(g2187
g2173
Ntp3837
Rp3838
(lp3839
g2171
(g2191
g2173
Ntp3840
Rp3841
(lp3842
F37.59999915957451
aF15.91999964416027
aI0
abag2171
(g2195
g2173
Ntp3843
Rp3844
(lp3845
F0.0
aF0.0
aF-0.9659258262890683
aF0.25881904510252074
ababag2171
(g2187
g2173
Ntp3846
Rp3847
(lp3848
g2171
(g2191
g2173
Ntp3849
Rp3850
(lp3851
F37.58639566434275
aF15.912145662526296
aI0
abag2171
(g2195
g2173
Ntp3852
Rp3853
(lp3854
F0.0
aF0.0
aF-0.9723699203976766
aF0.23344536385590547
ababag2171
(g2187
g2173
Ntp3855
Rp3856
(lp3857
g2171
(g2191
g2173
Ntp3858
Rp3859
(lp3860
F37.5723997665893
aF15.90501439643239
aI0
abag2171
(g2195
g2173
Ntp3861
Rp3862
(lp3863
F0.0
aF0.0
aF-0.9781476007338057
aF0.20791169081775923
ababag2171
(g2187
g2173
Ntp3864
Rp3865
(lp3866
g2171
(g2191
g2173
Ntp3867
Rp3868
(lp3869
F37.55804982809705
aF15.898625392183225
aI0
abag2171
(g2195
g2173
Ntp3870
Rp3871
(lp3872
F0.0
aF0.0
aF-0.9832549075639546
aF0.18223552549214744
ababag2171
(g2187
g2173
Ntp3873
Rp3874
(lp3875
g2171
(g2191
g2173
Ntp3876
Rp3877
(lp3878
F37.556434817600156
aF15.898005447737265
aI0
abag2171
(g2195
g2173
Ntp3879
Rp3880
(lp3881
F0.0
aF0.0
aF-0.983776238616581
aF0.17939986714992814
ababag2171
(g2187
g2173
Ntp3882
Rp3883
(lp3884
g2171
(g2191
g2173
Ntp3885
Rp3886
(lp3887
F37.27574540500021
aF15.792111851829423
aI0
abag2171
(g2195
g2173
Ntp3888
Rp3889
(lp3890
F0.0
aF0.0
aF-0.983776238616581
aF0.17939986714992814
ababag2171
(g2187
g2173
Ntp3891
Rp3892
(lp3893
g2171
(g2191
g2173
Ntp3894
Rp3895
(lp3896
F36.99505599240025
aF15.686218255921581
aI0
abag2171
(g2195
g2173
Ntp3897
Rp3898
(lp3899
F0.0
aF0.0
aF-0.983776238616581
aF0.17939986714992814
ababag2171
(g2187
g2173
Ntp3900
Rp3901
(lp3902
g2171
(g2191
g2173
Ntp3903
Rp3904
(lp3905
F36.7143665798003
aF15.580324660013739
aI0
abag2171
(g2195
g2173
Ntp3906
Rp3907
(lp3908
F0.0
aF0.0
aF-0.983776238616581
aF0.17939986714992814
ababag2171
(g2187
g2173
Ntp3909
Rp3910
(lp3911
g2171
(g2191
g2173
Ntp3912
Rp3913
(lp3914
F36.433677167200344
aF15.474431064105897
aI0
abag2171
(g2195
g2173
Ntp3915
Rp3916
(lp3917
F0.0
aF0.0
aF-0.983776238616581
aF0.17939986714992814
ababag2171
(g2187
g2173
Ntp3918
Rp3919
(lp3920
g2171
(g2191
g2173
Ntp3921
Rp3922
(lp3923
F36.152987754600396
aF15.368537468198054
aI0
abag2171
(g2195
g2173
Ntp3924
Rp3925
(lp3926
F0.0
aF0.0
aF-0.983776238616581
aF0.17939986714992814
ababag2171
(g2187
g2173
Ntp3927
Rp3928
(lp3929
g2171
(g2191
g2173
Ntp3930
Rp3931
(lp3932
F35.87229834200044
aF15.262643872290212
aI0
abag2171
(g2195
g2173
Ntp3933
Rp3934
(lp3935
F0.0
aF0.0
aF-0.983776238616581
aF0.17939986714992814
ababag2171
(g2187
g2173
Ntp3936
Rp3937
(lp3938
g2171
(g2191
g2173
Ntp3939
Rp3940
(lp3941
F35.591608929400486
aF15.15675027638237
aI0
abag2171
(g2195
g2173
Ntp3942
Rp3943
(lp3944
F0.0
aF0.0
aF-0.983776238616581
aF0.17939986714992814
ababag2171
(g2187
g2173
Ntp3945
Rp3946
(lp3947
g2171
(g2191
g2173
Ntp3948
Rp3949
(lp3950
F35.31091951680053
aF15.050856680474528
aI0
abag2171
(g2195
g2173
Ntp3951
Rp3952
(lp3953
F0.0
aF0.0
aF-0.983776238616581
aF0.17939986714992814
ababag2171
(g2187
g2173
Ntp3954
Rp3955
(lp3956
g2171
(g2191
g2173
Ntp3957
Rp3958
(lp3959
F35.030230104200584
aF14.944963084566684
aI0
abag2171
(g2195
g2173
Ntp3960
Rp3961
(lp3962
F0.0
aF0.0
aF-0.983776238616581
aF0.17939986714992814
ababag2171
(g2187
g2173
Ntp3963
Rp3964
(lp3965
g2171
(g2191
g2173
Ntp3966
Rp3967
(lp3968
F34.74954069160063
aF14.839069488658842
aI0
abag2171
(g2195
g2173
Ntp3969
Rp3970
(lp3971
F0.0
aF0.0
aF-0.983776238616581
aF0.17939986714992814
ababag2171
(g2187
g2173
Ntp3972
Rp3973
(lp3974
g2171
(g2191
g2173
Ntp3975
Rp3976
(lp3977
F34.468851279000674
aF14.733175892751
aI0
abag2171
(g2195
g2173
Ntp3978
Rp3979
(lp3980
F0.0
aF0.0
aF-0.983776238616581
aF0.17939986714992814
ababag2171
(g2187
g2173
Ntp3981
Rp3982
(lp3983
g2171
(g2191
g2173
Ntp3984
Rp3985
(lp3986
F34.18816186640072
aF14.627282296843157
aI0
abag2171
(g2195
g2173
Ntp3987
Rp3988
(lp3989
F0.0
aF0.0
aF-0.983776238616581
aF0.17939986714992814
ababag2171
(g2187
g2173
Ntp3990
Rp3991
(lp3992
g2171
(g2191
g2173
Ntp3993
Rp3994
(lp3995
F33.90747245380077
aF14.521388700935315
aI0
abag2171
(g2195
g2173
Ntp3996
Rp3997
(lp3998
F0.0
aF0.0
aF-0.983776238616581
aF0.17939986714992814
ababag2171
(g2187
g2173
Ntp3999
Rp4000
(lp4001
g2171
(g2191
g2173
Ntp4002
Rp4003
(lp4004
F33.62678304120082
aF14.415495105027473
aI0
abag2171
(g2195
g2173
Ntp4005
Rp4006
(lp4007
F0.0
aF0.0
aF-0.983776238616581
aF0.17939986714992814
ababag2171
(g2187
g2173
Ntp4008
Rp4009
(lp4010
g2171
(g2191
g2173
Ntp4011
Rp4012
(lp4013
F33.34609362860086
aF14.30960150911963
aI0
abag2171
(g2195
g2173
Ntp4014
Rp4015
(lp4016
F0.0
aF0.0
aF-0.983776238616581
aF0.17939986714992814
ababag2171
(g2187
g2173
Ntp4017
Rp4018
(lp4019
g2171
(g2191
g2173
Ntp4020
Rp4021
(lp4022
F33.065404216000914
aF14.203707913211788
aI0
abag2171
(g2195
g2173
Ntp4023
Rp4024
(lp4025
F0.0
aF0.0
aF-0.983776238616581
aF0.17939986714992814
ababag2171
(g2187
g2173
Ntp4026
Rp4027
(lp4028
g2171
(g2191
g2173
Ntp4029
Rp4030
(lp4031
F32.78471480340096
aF14.097814317303946
aI0
abag2171
(g2195
g2173
Ntp4032
Rp4033
(lp4034
F0.0
aF0.0
aF-0.983776238616581
aF0.17939986714992814
ababag2171
(g2187
g2173
Ntp4035
Rp4036
(lp4037
g2171
(g2191
g2173
Ntp4038
Rp4039
(lp4040
F32.504025390801004
aF13.991920721396104
aI0
abag2171
(g2195
g2173
Ntp4041
Rp4042
(lp4043
F0.0
aF0.0
aF-0.983776238616581
aF0.17939986714992814
ababag2171
(g2187
g2173
Ntp4044
Rp4045
(lp4046
g2171
(g2191
g2173
Ntp4047
Rp4048
(lp4049
F32.22333597820105
aF13.886027125488262
aI0
abag2171
(g2195
g2173
Ntp4050
Rp4051
(lp4052
F0.0
aF0.0
aF-0.983776238616581
aF0.17939986714992814
ababag2171
(g2187
g2173
Ntp4053
Rp4054
(lp4055
g2171
(g2191
g2173
Ntp4056
Rp4057
(lp4058
F31.942646565601102
aF13.78013352958042
aI0
abag2171
(g2195
g2173
Ntp4059
Rp4060
(lp4061
F0.0
aF0.0
aF-0.983776238616581
aF0.17939986714992814
ababag2171
(g2187
g2173
Ntp4062
Rp4063
(lp4064
g2171
(g2191
g2173
Ntp4065
Rp4066
(lp4067
F31.661957153001147
aF13.674239933672578
aI0
abag2171
(g2195
g2173
Ntp4068
Rp4069
(lp4070
F0.0
aF0.0
aF-0.983776238616581
aF0.17939986714992814
ababag2171
(g2187
g2173
Ntp4071
Rp4072
(lp4073
g2171
(g2191
g2173
Ntp4074
Rp4075
(lp4076
F31.5543405006457
aF13.633640203914604
aI0
abag2171
(g2195
g2173
Ntp4077
Rp4078
(lp4079
F0.0
aF0.0
aF-0.983776238616581
aF0.17939986714992814
ababag2171
(g2187
g2173
Ntp4080
Rp4081
(lp4082
g2171
(g2191
g2173
Ntp4083
Rp4084
(lp4085
F31.53964363736963
aF13.6280956281985
aI0
abag2171
(g2195
g2173
Ntp4086
Rp4087
(lp4088
F0.0
aF0.0
aF-0.9881352641187899
aF0.15358613155128725
ababag2171
(g2187
g2173
Ntp4089
Rp4090
(lp4091
g2171
(g2191
g2173
Ntp4092
Rp4093
(lp4094
F31.52467673496183
aF13.62332782552404
aI0
abag2171
(g2195
g2173
Ntp4095
Rp4096
(lp4097
F0.0
aF0.0
aF-0.9918170710694295
aF0.12766713568987978
ababag2171
(g2187
g2173
Ntp4098
Rp4099
(lp4100
g2171
(g2191
g2173
Ntp4101
Rp4102
(lp4103
F31.509480816661462
aF13.61934986410695
aI0
abag2171
(g2195
g2173
Ntp4104
Rp4105
(lp4106
F0.0
aF0.0
aF-0.9948191361419263
aF0.10166064315078598
ababag2171
(g2187
g2173
Ntp4107
Rp4108
(lp4109
g2171
(g2191
g2173
Ntp4110
Rp4111
(lp4112
F31.500919448056806
aF13.61758162490086
aI0
abag2171
(g2195
g2173
Ntp4113
Rp4114
(lp4115
F0.0
aF0.0
aF-0.9961946980917455
aF0.08715574274765836
ababag2171
(g2187
g2173
Ntp4116
Rp4117
(lp4118
g2171
(g2191
g2173
Ntp4119
Rp4120
(lp4121
F31.499999295920134
aF13.619999695569277
aI0
abag2171
(g2195
g2173
Ntp4122
Rp4123
(lp4124
F0.0
aF0.0
aF-0.9961946980917455
aF0.08715574274765814
ababag2171
(g2187
g2173
Ntp4125
Rp4126
(lp4127
g2171
(g2191
g2173
Ntp4128
Rp4129
(lp4130
F31.484529971909826
aF13.617272036372938
aI0
abag2171
(g2195
g2173
Ntp4131
Rp4132
(lp4133
F0.0
aF0.0
aF-0.9935718556765875
aF0.11320321376790661
ababag2171
(g2187
g2173
Ntp4134
Rp4135
(lp4136
g2171
(g2191
g2173
Ntp4137
Rp4138
(lp4139
F31.492960442581353
aF13.61921836388721
aI0
abag2171
(g2195
g2173
Ntp4140
Rp4141
(lp4142
F0.0
aF0.0
aF-0.9951009287111694
aF0.09886425885105415
ababag2171
(g2187
g2173
Ntp4143
Rp4144
(lp4145
g2171
(g2191
g2173
Ntp4146
Rp4147
(lp4148
F31.198824927588255
aF13.560190414407796
aI0
abag2171
(g2195
g2173
Ntp4149
Rp4150
(lp4151
F0.0
aF0.0
aF-0.9951009287111694
aF0.09886425885105415
ababag2171
(g2187
g2173
Ntp4152
Rp4153
(lp4154
g2171
(g2191
g2173
Ntp4155
Rp4156
(lp4157
F31.011991559903905
aF13.522696164218392
aI0
abag2171
(g2195
g2173
Ntp4158
Rp4159
(lp4160
F0.0
aF0.0
aF-0.9951009287111694
aF0.09886425885105415
ababag2171
(g2187
g2173
Ntp4161
Rp4162
(lp4163
g2171
(g2191
g2173
Ntp4164
Rp4165
(lp4166
F30.99659066035287
aF13.51960546801104
aI0
abag2171
(g2195
g2173
Ntp4167
Rp4168
(lp4169
F0.0
aF0.0
aF-0.9973478970695405
aF0.07278167496674709
ababag2171
(g2187
g2173
Ntp4170
Rp4171
(lp4172
g2171
(g2191
g2173
Ntp4173
Rp4174
(lp4175
F30.99997070646591
aF13.520101428357536
aI0
abag2171
(g2195
g2173
Ntp4176
Rp4177
(lp4178
F0.0
aF0.0
aF-0.996917333733128
aF0.078459095727845
ababag2171
(g2187
g2173
Ntp4179
Rp4180
(lp4181
g2171
(g2191
g2173
Ntp4182
Rp4183
(lp4184
F30.999999307096004
aF13.519999697804451
aI0
abag2171
(g2195
g2173
Ntp4185
Rp4186
(lp4187
F0.0
aF0.0
aF-0.996917333733128
aF0.078459095727845
ababag2171
(g2187
g2173
Ntp4188
Rp4189
(lp4190
g2171
(g2191
g2173
Ntp4191
Rp4192
(lp4193
F30.984484734921754
aF13.517542430973759
aI0
abag2171
(g2195
g2173
Ntp4194
Rp4195
(lp4196
F0.0
aF0.0
aF-0.9986295347545738
aF0.052335956242943966
ababag2171
(g2187
g2173
Ntp4197
Rp4198
(lp4199
g2171
(g2191
g2173
Ntp4200
Rp4201
(lp4202
F30.96886282152014
aF13.515900501712295
aI0
abag2171
(g2195
g2173
Ntp4203
Rp4204
(lp4205
F0.0
aF0.0
aF-0.9996573249755573
aF0.02617694830787314
ababag2171
(g2187
g2173
Ntp4206
Rp4207
(lp4208
g2171
(g2191
g2173
Ntp4209
Rp4210
(lp4211
F30.953176385469924
aF13.515078410434038
aI0
abag2171
(g2195
g2173
Ntp4212
Rp4213
(lp4214
F0.0
aF0.0
aF1.0
aF6.123233995736766e-17
ababag2171
(g2187
g2173
Ntp4215
Rp4216
(lp4217
g2171
(g2191
g2173
Ntp4218
Rp4219
(lp4220
F30.950409105468665
aF13.515078410434038
aI0
abag2171
(g2195
g2173
Ntp4221
Rp4222
(lp4223
F0.0
aF0.0
aF0.9999893641319018
aF0.004612116984071733
ababag2171
(g2187
g2173
Ntp4224
Rp4225
(lp4226
g2171
(g2191
g2173
Ntp4227
Rp4228
(lp4229
F30.65042186844251
aF13.51784565119216
aI0
abag2171
(g2195
g2173
Ntp4230
Rp4231
(lp4232
F0.0
aF0.0
aF0.9999893641319018
aF0.004612116984071733
ababag2171
(g2187
g2173
Ntp4233
Rp4234
(lp4235
g2171
(g2191
g2173
Ntp4236
Rp4237
(lp4238
F30.429020662732324
aF13.519887972880282
aI0
abag2171
(g2195
g2173
Ntp4239
Rp4240
(lp4241
F0.0
aF0.0
aF0.9999893641319018
aF0.004612116984071733
ababag2171
(g2187
g2173
Ntp4242
Rp4243
(lp4244
g2171
(g2191
g2173
Ntp4245
Rp4246
(lp4247
F30.413313367732123
aF13.520032865267556
aI0
abag2171
(g2195
g2173
Ntp4248
Rp4249
(lp4250
F0.0
aF0.0
aF-0.9997674238999873
aF0.02156613336653252
ababag2171
(g2187
g2173
Ntp4251
Rp4252
(lp4253
g2171
(g2191
g2173
Ntp4254
Rp4255
(lp4256
F30.40008642732429
aF13.519461958977459
aI0
abag2171
(g2195
g2173
Ntp4257
Rp4258
(lp4259
F0.0
aF0.0
aF-0.9990482215818578
aF0.04361938736533601
ababag2171
(g2187
g2173
Ntp4260
Rp4261
(lp4262
g2171
(g2191
g2173
Ntp4263
Rp4264
(lp4265
F30.39999932050705
aF13.519999697804451
aI0
abag2171
(g2195
g2173
Ntp4266
Rp4267
(lp4268
F0.0
aF0.0
aF-0.9990482215818578
aF0.04361938736533623
ababag2171
(g2187
g2173
Ntp4269
Rp4270
(lp4271
g2171
(g2191
g2173
Ntp4272
Rp4273
(lp4274
F30.3843511307817
aF13.51863065859878
aI0
abag2171
(g2195
g2173
Ntp4275
Rp4276
(lp4277
F0.0
aF0.0
aF-0.9998476951563913
aF0.01745240643728382
ababag2171
(g2187
g2173
Ntp4278
Rp4279
(lp4280
g2171
(g2191
g2173
Ntp4281
Rp4282
(lp4283
F30.368652736380557
aF13.518082458586507
aI0
abag2171
(g2195
g2173
Ntp4284
Rp4285
(lp4286
F0.0
aF0.0
aF0.9999619230641713
aF0.008726535498373897
ababag2171
(g2187
g2173
Ntp4287
Rp4288
(lp4289
g2171
(g2191
g2173
Ntp4290
Rp4291
(lp4292
F30.352947165511498
aF13.518356600345761
aI0
abag2171
(g2195
g2173
Ntp4293
Rp4294
(lp4295
F0.0
aF0.0
aF0.9993908270190958
aF0.03489949670250086
ababag2171
(g2187
g2173
Ntp4296
Rp4297
(lp4298
g2171
(g2191
g2173
Ntp4299
Rp4300
(lp4301
F30.33727746605259
aF13.519452332473035
aI0
abag2171
(g2195
g2173
Ntp4302
Rp4303
(lp4304
F0.0
aF0.0
aF0.998134798421867
aF0.061048539534856686
ababag2171
(g2187
g2173
Ntp4305
Rp4306
(lp4307
g2171
(g2191
g2173
Ntp4308
Rp4309
(lp4310
F30.321686587560865
aF13.521366651642733
aI0
abag2171
(g2195
g2173
Ntp4311
Rp4312
(lp4313
F0.0
aF0.0
aF0.9961946980917455
aF0.08715574274765814
ababag2171
(g2187
g2173
Ntp4314
Rp4315
(lp4316
g2171
(g2191
g2173
Ntp4317
Rp4318
(lp4319
F30.320593853728397
aF13.52155933010013
aI0
abag2171
(g2195
g2173
Ntp4320
Rp4321
(lp4322
F0.0
aF0.0
aF0.9960318159871023
aF0.08899787380289019
ababag2171
(g2187
g2173
Ntp4323
Rp4324
(lp4325
g2171
(g2191
g2173
Ntp4326
Rp4327
(lp4328
F30.025346226653255
aF13.57474615841786
aI0
abag2171
(g2195
g2173
Ntp4329
Rp4330
(lp4331
F0.0
aF0.0
aF0.9960318159871023
aF0.08899787380289019
ababag2171
(g2187
g2173
Ntp4332
Rp4333
(lp4334
g2171
(g2191
g2173
Ntp4335
Rp4336
(lp4337
F29.730098599578117
aF13.62793298673559
aI0
abag2171
(g2195
g2173
Ntp4338
Rp4339
(lp4340
F0.0
aF0.0
aF0.9960318159871023
aF0.08899787380289019
ababag2171
(g2187
g2173
Ntp4341
Rp4342
(lp4343
g2171
(g2191
g2173
Ntp4344
Rp4345
(lp4346
F29.43485097250298
aF13.68111981505332
aI0
abag2171
(g2195
g2173
Ntp4347
Rp4348
(lp4349
F0.0
aF0.0
aF0.9960318159871023
aF0.08899787380289019
ababag2171
(g2187
g2173
Ntp4350
Rp4351
(lp4352
g2171
(g2191
g2173
Ntp4353
Rp4354
(lp4355
F29.13960334542784
aF13.73430664337105
aI0
abag2171
(g2195
g2173
Ntp4356
Rp4357
(lp4358
F0.0
aF0.0
aF0.9960318159871023
aF0.08899787380289019
ababag2171
(g2187
g2173
Ntp4359
Rp4360
(lp4361
g2171
(g2191
g2173
Ntp4362
Rp4363
(lp4364
F28.844355718352702
aF13.78749347168878
aI0
abag2171
(g2195
g2173
Ntp4365
Rp4366
(lp4367
F0.0
aF0.0
aF0.9960318159871023
aF0.08899787380289019
ababag2171
(g2187
g2173
Ntp4368
Rp4369
(lp4370
g2171
(g2191
g2173
Ntp4371
Rp4372
(lp4373
F28.749346657548355
aF13.804608700202856
aI0
abag2171
(g2195
g2173
Ntp4374
Rp4375
(lp4376
F0.0
aF0.0
aF0.9960318159871023
aF0.08899787380289019
ababag2171
(g2187
g2173
Ntp4377
Rp4378
(lp4379
g2171
(g2191
g2173
Ntp4380
Rp4381
(lp4382
F28.73388752794487
aF13.807393556021369
aI0
abag2171
(g2195
g2173
Ntp4383
Rp4384
(lp4385
F0.0
aF0.0
aF0.9933608080181643
aF0.11504044981440098
ababag2171
(g2187
g2173
Ntp4386
Rp4387
(lp4388
g2171
(g2191
g2173
Ntp4389
Rp4390
(lp4391
F28.71859533263349
aF13.810983663622249
aI0
abag2171
(g2195
g2173
Ntp4392
Rp4393
(lp4394
F0.0
aF0.0
aF0.9900090001708902
aF0.14100418284800745
ababag2171
(g2187
g2173
Ntp4395
Rp4396
(lp4397
g2171
(g2191
g2173
Ntp4398
Rp4399
(lp4400
F28.703511986458622
aF13.81536918277011
aI0
abag2171
(g2195
g2173
Ntp4401
Rp4402
(lp4403
F0.0
aF0.0
aF0.985978689606952
aF0.16687127865800597
ababag2171
(g2187
g2173
Ntp4404
Rp4405
(lp4406
g2171
(g2191
g2173
Ntp4407
Rp4408
(lp4409
F28.69961539719834
aF13.816727027465031
aI0
abag2171
(g2195
g2173
Ntp4410
Rp4411
(lp4412
F0.0
aF0.0
aF0.9848077530122081
aF0.17364817766693022
ababag2171
(g2187
g2173
Ntp4413
Rp4414
(lp4415
g2171
(g2191
g2173
Ntp4416
Rp4417
(lp4418
F28.69999935850501
aF13.819999691098928
aI0
abag2171
(g2195
g2173
Ntp4419
Rp4420
(lp4421
F0.0
aF0.0
aF0.984807753012208
aF0.17364817766693041
ababag2171
(g2187
g2173
Ntp4422
Rp4423
(lp4424
g2171
(g2191
g2173
Ntp4425
Rp4426
(lp4427
F28.685238701334544
aF13.825372130947187
aI0
abag2171
(g2195
g2173
Ntp4428
Rp4429
(lp4430
F0.0
aF0.0
aF0.9799247046208296
aF0.1993679344171972
ababag2171
(g2187
g2173
Ntp4431
Rp4432
(lp4433
g2171
(g2191
g2173
Ntp4434
Rp4435
(lp4436
F28.677019496282387
aF13.82886097650109
aI0
abag2171
(g2195
g2173
Ntp4437
Rp4438
(lp4439
F0.0
aF0.0
aF0.9768493732973633
aF0.21392826341684842
ababag2171
(g2187
g2173
Ntp4440
Rp4441
(lp4442
g2171
(g2191
g2173
Ntp4443
Rp4444
(lp4445
F28.404478677415515
aF13.954246390530695
aI0
abag2171
(g2195
g2173
Ntp4446
Rp4447
(lp4448
F0.0
aF0.0
aF0.9768493732973633
aF0.21392826341684842
ababag2171
(g2187
g2173
Ntp4449
Rp4450
(lp4451
g2171
(g2191
g2173
Ntp4452
Rp4453
(lp4454
F28.131937858548646
aF14.0796318045603
aI0
abag2171
(g2195
g2173
Ntp4455
Rp4456
(lp4457
F0.0
aF0.0
aF0.9768493732973633
aF0.21392826341684842
ababag2171
(g2187
g2173
Ntp4458
Rp4459
(lp4460
g2171
(g2191
g2173
Ntp4461
Rp4462
(lp4463
F27.859397039681774
aF14.205017218589905
aI0
abag2171
(g2195
g2173
Ntp4464
Rp4465
(lp4466
F0.0
aF0.0
aF0.9768493732973633
aF0.21392826341684842
ababag2171
(g2187
g2173
Ntp4467
Rp4468
(lp4469
g2171
(g2191
g2173
Ntp4470
Rp4471
(lp4472
F27.5868562208149
aF14.33040263261951
aI0
abag2171
(g2195
g2173
Ntp4473
Rp4474
(lp4475
F0.0
aF0.0
aF0.9768493732973633
aF0.21392826341684842
ababag2171
(g2187
g2173
Ntp4476
Rp4477
(lp4478
g2171
(g2191
g2173
Ntp4479
Rp4480
(lp4481
F27.314315401948033
aF14.455788046649115
aI0
abag2171
(g2195
g2173
Ntp4482
Rp4483
(lp4484
F0.0
aF0.0
aF0.9768493732973633
aF0.21392826341684842
ababag2171
(g2187
g2173
Ntp4485
Rp4486
(lp4487
g2171
(g2191
g2173
Ntp4488
Rp4489
(lp4490
F27.04177458308116
aF14.58117346067872
aI0
abag2171
(g2195
g2173
Ntp4491
Rp4492
(lp4493
F0.0
aF0.0
aF0.9768493732973633
aF0.21392826341684842
ababag2171
(g2187
g2173
Ntp4494
Rp4495
(lp4496
g2171
(g2191
g2173
Ntp4497
Rp4498
(lp4499
F26.76923376421429
aF14.706558874708325
aI0
abag2171
(g2195
g2173
Ntp4500
Rp4501
(lp4502
F0.0
aF0.0
aF0.9768493732973633
aF0.21392826341684842
ababag2171
(g2187
g2173
Ntp4503
Rp4504
(lp4505
g2171
(g2191
g2173
Ntp4506
Rp4507
(lp4508
F26.49669294534742
aF14.83194428873793
aI0
abag2171
(g2195
g2173
Ntp4509
Rp4510
(lp4511
F0.0
aF0.0
aF0.9768493732973633
aF0.21392826341684842
ababag2171
(g2187
g2173
Ntp4512
Rp4513
(lp4514
g2171
(g2191
g2173
Ntp4515
Rp4516
(lp4517
F26.224152126480547
aF14.957329702767534
aI0
abag2171
(g2195
g2173
Ntp4518
Rp4519
(lp4520
F0.0
aF0.0
aF0.9768493732973633
aF0.21392826341684842
ababag2171
(g2187
g2173
Ntp4521
Rp4522
(lp4523
g2171
(g2191
g2173
Ntp4524
Rp4525
(lp4526
F25.95161130761368
aF15.08271511679714
aI0
abag2171
(g2195
g2173
Ntp4527
Rp4528
(lp4529
F0.0
aF0.0
aF0.9768493732973633
aF0.21392826341684842
ababag2171
(g2187
g2173
Ntp4530
Rp4531
(lp4532
g2171
(g2191
g2173
Ntp4533
Rp4534
(lp4535
F25.679070488746806
aF15.208100530826744
aI0
abag2171
(g2195
g2173
Ntp4536
Rp4537
(lp4538
F0.0
aF0.0
aF0.9768493732973633
aF0.21392826341684842
ababag2171
(g2187
g2173
Ntp4539
Rp4540
(lp4541
g2171
(g2191
g2173
Ntp4542
Rp4543
(lp4544
F25.406529669879937
aF15.333485944856351
aI0
abag2171
(g2195
g2173
Ntp4545
Rp4546
(lp4547
F0.0
aF0.0
aF0.9768493732973633
aF0.21392826341684842
ababag2171
(g2187
g2173
Ntp4548
Rp4549
(lp4550
g2171
(g2191
g2173
Ntp4551
Rp4552
(lp4553
F25.133988851013065
aF15.458871358885956
aI0
abag2171
(g2195
g2173
Ntp4554
Rp4555
(lp4556
F0.0
aF0.0
aF0.9768493732973633
aF0.21392826341684842
ababag2171
(g2187
g2173
Ntp4557
Rp4558
(lp4559
g2171
(g2191
g2173
Ntp4560
Rp4561
(lp4562
F25.02257832104764
aF15.510127003765323
aI0
abag2171
(g2195
g2173
Ntp4563
Rp4564
(lp4565
F0.0
aF0.0
aF0.9768493732973633
aF0.21392826341684842
ababag2171
(g2187
g2173
Ntp4566
Rp4567
(lp4568
g2171
(g2191
g2173
Ntp4569
Rp4570
(lp4571
F25.008308117141713
aF15.516692168691703
aI0
abag2171
(g2195
g2173
Ntp4572
Rp4573
(lp4574
F0.0
aF0.0
aF0.9821146205075477
aF0.18828401999456978
ababag2171
(g2187
g2173
Ntp4575
Rp4576
(lp4577
g2171
(g2191
g2173
Ntp4578
Rp4579
(lp4580
F25.000012181440802
aF15.519994414266266
aI0
abag2171
(g2195
g2173
Ntp4581
Rp4582
(lp4583
F0.0
aF0.0
aF0.984807753012208
aF0.17364817766693041
ababag2171
(g2187
g2173
Ntp4584
Rp4585
(lp4586
g2171
(g2191
g2173
Ntp4587
Rp4588
(lp4589
F24.999999441206455
aF15.519999653100967
aI0
abag2171
(g2195
g2173
Ntp4590
Rp4591
(lp4592
F0.0
aF0.0
aF0.984807753012208
aF0.17364817766693041
ababag2171
(g2187
g2173
Ntp4593
Rp4594
(lp4595
g2171
(g2191
g2173
Ntp4596
Rp4597
(lp4598
F24.98523878403599
aF15.525372092949226
aI0
abag2171
(g2195
g2173
Ntp4599
Rp4600
(lp4601
F0.0
aF0.0
aF0.9890158633619168
aF0.14780941112961077
ababag2171
(g2187
g2173
Ntp4602
Rp4603
(lp4604
g2171
(g2191
g2173
Ntp4605
Rp4606
(lp4607
F24.970217184056356
aF15.529964656947598
aI0
abag2171
(g2195
g2173
Ntp4608
Rp4609
(lp4610
F0.0
aF0.0
aF0.992546151641322
aF0.12186934340514749
ababag2171
(g2187
g2173
Ntp4611
Rp4612
(lp4613
g2171
(g2191
g2173
Ntp4614
Rp4615
(lp4616
F24.954975814428963
aF15.53376475719739
aI0
abag2171
(g2195
g2173
Ntp4617
Rp4618
(lp4619
F0.0
aF0.0
aF0.9953961983671787
aF0.09584575252022406
ababag2171
(g2187
g2173
Ntp4620
Rp4621
(lp4622
g2171
(g2191
g2173
Ntp4623
Rp4624
(lp4625
F24.93955645068855
aF15.53676197788796
aI0
abag2171
(g2195
g2173
Ntp4626
Rp4627
(lp4628
F0.0
aF0.0
aF0.9975640502598242
aF0.06975647374412546
ababag2171
(g2187
g2173
Ntp4629
Rp4630
(lp4631
g2171
(g2191
g2173
Ntp4632
Rp4633
(lp4634
F24.924001356239334
aF15.538948103845726
aI0
abag2171
(g2195
g2173
Ntp4635
Rp4636
(lp4637
F0.0
aF0.0
aF0.9990482215818578
aF0.04361938736533601
ababag2171
(g2187
g2173
Ntp4638
Rp4639
(lp4640
g2171
(g2191
g2173
Ntp4641
Rp4642
(lp4643
F24.913657474531995
aF15.53985307623197
aI0
abag2171
(g2195
g2173
Ntp4644
Rp4645
(lp4646
F0.0
aF0.0
aF0.9996534494098982
aF0.026324533858969233
ababag2171
(g2187
g2173
Ntp4647
Rp4648
(lp4649
g2171
(g2191
g2173
Ntp4650
Rp4651
(lp4652
F24.61407326318173
aF15.555642322877707
aI0
abag2171
(g2195
g2173
Ntp4653
Rp4654
(lp4655
F0.0
aF0.0
aF0.9996534494098982
aF0.026324533858969233
ababag2171
(g2187
g2173
Ntp4656
Rp4657
(lp4658
g2171
(g2191
g2173
Ntp4659
Rp4660
(lp4661
F24.314489051831465
aF15.571431569523444
aI0
abag2171
(g2195
g2173
Ntp4662
Rp4663
(lp4664
F0.0
aF0.0
aF0.9996534494098982
aF0.026324533858969233
ababag2171
(g2187
g2173
Ntp4665
Rp4666
(lp4667
g2171
(g2191
g2173
Ntp4668
Rp4669
(lp4670
F24.0149048404812
aF15.587220816169179
aI0
abag2171
(g2195
g2173
Ntp4671
Rp4672
(lp4673
F0.0
aF0.0
aF0.9996534494098982
aF0.026324533858969233
ababag2171
(g2187
g2173
Ntp4674
Rp4675
(lp4676
g2171
(g2191
g2173
Ntp4677
Rp4678
(lp4679
F23.715320629130936
aF15.603010062814915
aI0
abag2171
(g2195
g2173
Ntp4680
Rp4681
(lp4682
F0.0
aF0.0
aF0.9996534494098982
aF0.026324533858969233
ababag2171
(g2187
g2173
Ntp4683
Rp4684
(lp4685
g2171
(g2191
g2173
Ntp4686
Rp4687
(lp4688
F23.41573641778067
aF15.61879930946065
aI0
abag2171
(g2195
g2173
Ntp4689
Rp4690
(lp4691
F0.0
aF0.0
aF0.9996534494098982
aF0.026324533858969233
ababag2171
(g2187
g2173
Ntp4692
Rp4693
(lp4694
g2171
(g2191
g2173
Ntp4695
Rp4696
(lp4697
F23.116152206430407
aF15.634588556106387
aI0
abag2171
(g2195
g2173
Ntp4698
Rp4699
(lp4700
F0.0
aF0.0
aF0.9996534494098982
aF0.026324533858969233
ababag2171
(g2187
g2173
Ntp4701
Rp4702
(lp4703
g2171
(g2191
g2173
Ntp4704
Rp4705
(lp4706
F22.816567995080142
aF15.650377802752121
aI0
abag2171
(g2195
g2173
Ntp4707
Rp4708
(lp4709
F0.0
aF0.0
aF0.9996534494098982
aF0.026324533858969233
ababag2171
(g2187
g2173
Ntp4710
Rp4711
(lp4712
g2171
(g2191
g2173
Ntp4713
Rp4714
(lp4715
F22.516983783729877
aF15.666167049397858
aI0
abag2171
(g2195
g2173
Ntp4716
Rp4717
(lp4718
F0.0
aF0.0
aF0.9996534494098982
aF0.026324533858969233
ababag2171
(g2187
g2173
Ntp4719
Rp4720
(lp4721
g2171
(g2191
g2173
Ntp4722
Rp4723
(lp4724
F22.217399572379612
aF15.681956296043595
aI0
abag2171
(g2195
g2173
Ntp4725
Rp4726
(lp4727
F0.0
aF0.0
aF0.9996534494098982
aF0.026324533858969233
ababag2171
(g2187
g2173
Ntp4728
Rp4729
(lp4730
g2171
(g2191
g2173
Ntp4731
Rp4732
(lp4733
F21.917815361029348
aF15.69774554268933
aI0
abag2171
(g2195
g2173
Ntp4734
Rp4735
(lp4736
F0.0
aF0.0
aF0.9996534494098982
aF0.026324533858969233
ababag2171
(g2187
g2173
Ntp4737
Rp4738
(lp4739
g2171
(g2191
g2173
Ntp4740
Rp4741
(lp4742
F21.618231149679083
aF15.713534789335066
aI0
abag2171
(g2195
g2173
Ntp4743
Rp4744
(lp4745
F0.0
aF0.0
aF0.9996534494098982
aF0.026324533858969233
ababag2171
(g2187
g2173
Ntp4746
Rp4747
(lp4748
g2171
(g2191
g2173
Ntp4749
Rp4750
(lp4751
F21.31864693832882
aF15.7293240359808
aI0
abag2171
(g2195
g2173
Ntp4752
Rp4753
(lp4754
F0.0
aF0.0
aF0.9996534494098982
aF0.026324533858969233
ababag2171
(g2187
g2173
Ntp4755
Rp4756
(lp4757
g2171
(g2191
g2173
Ntp4758
Rp4759
(lp4760
F21.11886964993436
aF15.739853071761623
aI0
abag2171
(g2195
g2173
Ntp4761
Rp4762
(lp4763
F0.0
aF0.0
aF0.9996534494098982
aF0.026324533858969233
ababag2171
(g2187
g2173
Ntp4764
Rp4765
(lp4766
g2171
(g2191
g2173
Ntp4767
Rp4768
(lp4769
F21.103183457309203
aF15.740679794782755
aI0
abag2171
(g2195
g2173
Ntp4770
Rp4771
(lp4772
F0.0
aF0.0
aF0.9999999891017426
aF0.00014763642769574658
ababag2171
(g2187
g2173
Ntp4773
Rp4774
(lp4775
g2171
(g2191
g2173
Ntp4776
Rp4777
(lp4778
F21.087475494726014
aF15.740684432917872
aI0
abag2171
(g2195
g2173
Ntp4779
Rp4780
(lp4781
F0.0
aF0.0
aF-0.9996611787521705
aF0.026029362186211023
ababag2171
(g2187
g2173
Ntp4782
Rp4783
(lp4784
g2171
(g2191
g2173
Ntp4785
Rp4786
(lp4787
F21.07178881661838
aF15.739866973454166
aI0
abag2171
(g2195
g2173
Ntp4788
Rp4789
(lp4790
F0.0
aF0.0
aF-0.9986372505648718
aF0.05218852157547067
ababag2171
(g2187
g2173
Ntp4791
Rp4792
(lp4793
g2171
(g2191
g2173
Ntp4794
Rp4795
(lp4796
F21.056166419080636
aF15.738229656991205
aI0
abag2171
(g2195
g2173
Ntp4797
Rp4798
(lp4799
F0.0
aF0.0
aF-0.9969289062890797
aF0.07831191355891731
ababag2171
(g2187
g2173
Ntp4800
Rp4801
(lp4802
g2171
(g2191
g2173
Ntp4803
Rp4804
(lp4805
F21.040651122018527
aF15.735776971299607
aI0
abag2171
(g2195
g2173
Ntp4806
Rp4807
(lp4808
F0.0
aF0.0
aF-0.994537316738627
aF0.10438163446857826
ababag2171
(g2187
g2173
Ntp4809
Rp4810
(lp4811
g2171
(g2191
g2173
Ntp4812
Rp4813
(lp4814
F21.02528545178285
aF15.73251563902037
aI0
abag2171
(g2195
g2173
Ntp4815
Rp4816
(lp4817
F0.0
aF0.0
aF-0.9914641209895292
aF0.1303798174199532
ababag2171
(g2187
g2173
Ntp4818
Rp4819
(lp4820
g2171
(g2191
g2173
Ntp4821
Rp4822
(lp4823
F21.01011152460766
aF15.728454599238576
aI0
abag2171
(g2195
g2173
Ntp4824
Rp4825
(lp4826
F0.0
aF0.0
aF-0.9877114252566429
aF0.15628864455708572
ababag2171
(g2187
g2173
Ntp4827
Rp4828
(lp4829
g2171
(g2191
g2173
Ntp4830
Rp4831
(lp4832
F21.000066874553113
aF15.725194173311852
aI0
abag2171
(g2195
g2173
Ntp4833
Rp4834
(lp4835
F0.0
aF0.0
aF-0.984807753012208
aF0.17364817766693064
ababag2171
(g2187
g2173
Ntp4836
Rp4837
(lp4838
g2171
(g2191
g2173
Ntp4839
Rp4840
(lp4841
F20.999999530613422
aF15.719999648630619
aI0
abag2171
(g2195
g2173
Ntp4842
Rp4843
(lp4844
F0.0
aF0.0
aF-0.984807753012208
aF0.17364817766693041
ababag2171
(g2187
g2173
Ntp4845
Rp4846
(lp4847
g2171
(g2191
g2173
Ntp4848
Rp4849
(lp4850
F20.985238873442956
aF15.71462720878236
aI0
abag2171
(g2195
g2173
Ntp4851
Rp4852
(lp4853
F0.0
aF0.0
aF-0.9799247046208296
aF0.1993679344171972
ababag2171
(g2187
g2173
Ntp4854
Rp4855
(lp4856
g2171
(g2191
g2173
Ntp4857
Rp4858
(lp4859
F20.970779617016955
aF15.708489618568407
aI0
abag2171
(g2195
g2173
Ntp4860
Rp4861
(lp4862
F0.0
aF0.0
aF-0.9743700647852352
aF0.22495105434386514
ababag2171
(g2187
g2173
Ntp4863
Rp4864
(lp4865
g2171
(g2191
g2173
Ntp4866
Rp4867
(lp4868
F20.969590597430546
aF15.707909694967672
aI0
abag2171
(g2195
g2173
Ntp4869
Rp4870
(lp4871
F0.0
aF0.0
aF-0.9738717151759202
aF0.22709883835086292
ababag2171
(g2187
g2173
Ntp4872
Rp4873
(lp4874
g2171
(g2191
g2173
Ntp4875
Rp4876
(lp4877
F20.700534926858733
aF15.575210613836145
aI0
abag2171
(g2195
g2173
Ntp4878
Rp4879
(lp4880
F0.0
aF0.0
aF-0.9738717151759202
aF0.22709883835086292
ababag2171
(g2187
g2173
Ntp4881
Rp4882
(lp4883
g2171
(g2191
g2173
Ntp4884
Rp4885
(lp4886
F20.43147925628692
aF15.442511532704616
aI0
abag2171
(g2195
g2173
Ntp4887
Rp4888
(lp4889
F0.0
aF0.0
aF-0.9738717151759202
aF0.22709883835086292
ababag2171
(g2187
g2173
Ntp4890
Rp4891
(lp4892
g2171
(g2191
g2173
Ntp4893
Rp4894
(lp4895
F20.162423585715107
aF15.309812451573087
aI0
abag2171
(g2195
g2173
Ntp4896
Rp4897
(lp4898
F0.0
aF0.0
aF-0.9738717151759202
aF0.22709883835086292
ababag2171
(g2187
g2173
Ntp4899
Rp4900
(lp4901
g2171
(g2191
g2173
Ntp4902
Rp4903
(lp4904
F19.893367915143294
aF15.177113370441559
aI0
abag2171
(g2195
g2173
Ntp4905
Rp4906
(lp4907
F0.0
aF0.0
aF-0.9738717151759202
aF0.22709883835086292
ababag2171
(g2187
g2173
Ntp4908
Rp4909
(lp4910
g2171
(g2191
g2173
Ntp4911
Rp4912
(lp4913
F19.62431224457148
aF15.044414289310032
aI0
abag2171
(g2195
g2173
Ntp4914
Rp4915
(lp4916
F0.0
aF0.0
aF-0.9738717151759202
aF0.22709883835086292
ababag2171
(g2187
g2173
Ntp4917
Rp4918
(lp4919
g2171
(g2191
g2173
Ntp4920
Rp4921
(lp4922
F19.355256573999668
aF14.911715208178503
aI0
abag2171
(g2195
g2173
Ntp4923
Rp4924
(lp4925
F0.0
aF0.0
aF-0.9738717151759202
aF0.22709883835086292
ababag2171
(g2187
g2173
Ntp4926
Rp4927
(lp4928
g2171
(g2191
g2173
Ntp4929
Rp4930
(lp4931
F19.086200903427855
aF14.779016127046974
aI0
abag2171
(g2195
g2173
Ntp4932
Rp4933
(lp4934
F0.0
aF0.0
aF-0.9738717151759202
aF0.22709883835086292
ababag2171
(g2187
g2173
Ntp4935
Rp4936
(lp4937
g2171
(g2191
g2173
Ntp4938
Rp4939
(lp4940
F18.817145232856042
aF14.646317045915445
aI0
abag2171
(g2195
g2173
Ntp4941
Rp4942
(lp4943
F0.0
aF0.0
aF-0.9738717151759202
aF0.22709883835086292
ababag2171
(g2187
g2173
Ntp4944
Rp4945
(lp4946
g2171
(g2191
g2173
Ntp4947
Rp4948
(lp4949
F18.54808956228423
aF14.513617964783919
aI0
abag2171
(g2195
g2173
Ntp4950
Rp4951
(lp4952
F0.0
aF0.0
aF-0.9738717151759202
aF0.22709883835086292
ababag2171
(g2187
g2173
Ntp4953
Rp4954
(lp4955
g2171
(g2191
g2173
Ntp4956
Rp4957
(lp4958
F18.279033891712416
aF14.38091888365239
aI0
abag2171
(g2195
g2173
Ntp4959
Rp4960
(lp4961
F0.0
aF0.0
aF-0.9738717151759202
aF0.22709883835086292
ababag2171
(g2187
g2173
Ntp4962
Rp4963
(lp4964
g2171
(g2191
g2173
Ntp4965
Rp4966
(lp4967
F18.009978221140603
aF14.248219802520861
aI0
abag2171
(g2195
g2173
Ntp4968
Rp4969
(lp4970
F0.0
aF0.0
aF-0.9738717151759202
aF0.22709883835086292
ababag2171
(g2187
g2173
Ntp4971
Rp4972
(lp4973
g2171
(g2191
g2173
Ntp4974
Rp4975
(lp4976
F17.74092255056879
aF14.115520721389332
aI0
abag2171
(g2195
g2173
Ntp4977
Rp4978
(lp4979
F0.0
aF0.0
aF-0.9738717151759202
aF0.22709883835086292
ababag2171
(g2187
g2173
Ntp4980
Rp4981
(lp4982
g2171
(g2191
g2173
Ntp4983
Rp4984
(lp4985
F17.471866879996977
aF13.982821640257804
aI0
abag2171
(g2195
g2173
Ntp4986
Rp4987
(lp4988
F0.0
aF0.0
aF-0.9738717151759202
aF0.22709883835086292
ababag2171
(g2187
g2173
Ntp4989
Rp4990
(lp4991
g2171
(g2191
g2173
Ntp4992
Rp4993
(lp4994
F17.202811209425164
aF13.850122559126277
aI0
abag2171
(g2195
g2173
Ntp4995
Rp4996
(lp4997
F0.0
aF0.0
aF-0.9738717151759202
aF0.22709883835086292
ababag2171
(g2187
g2173
Ntp4998
Rp4999
(lp5000
g2171
(g2191
g2173
Ntp5001
Rp5002
(lp5003
F16.93375553885335
aF13.717423477994748
aI0
abag2171
(g2195
g2173
Ntp5004
Rp5005
(lp5006
F0.0
aF0.0
aF-0.9738717151759202
aF0.22709883835086292
ababag2171
(g2187
g2173
Ntp5007
Rp5008
(lp5009
g2171
(g2191
g2173
Ntp5010
Rp5011
(lp5012
F16.664699868281538
aF13.58472439686322
aI0
abag2171
(g2195
g2173
Ntp5013
Rp5014
(lp5015
F0.0
aF0.0
aF-0.9738717151759202
aF0.22709883835086292
ababag2171
(g2187
g2173
Ntp5016
Rp5017
(lp5018
g2171
(g2191
g2173
Ntp5019
Rp5020
(lp5021
F16.395644197709725
aF13.45202531573169
aI0
abag2171
(g2195
g2173
Ntp5022
Rp5023
(lp5024
F0.0
aF0.0
aF-0.9738717151759202
aF0.22709883835086292
ababag2171
(g2187
g2173
Ntp5025
Rp5026
(lp5027
g2171
(g2191
g2173
Ntp5028
Rp5029
(lp5030
F16.126588527137912
aF13.319326234600162
aI0
abag2171
(g2195
g2173
Ntp5031
Rp5032
(lp5033
F0.0
aF0.0
aF-0.9738717151759202
aF0.22709883835086292
ababag2171
(g2187
g2173
Ntp5034
Rp5035
(lp5036
g2171
(g2191
g2173
Ntp5037
Rp5038
(lp5039
F15.857532856566099
aF13.186627153468635
aI0
abag2171
(g2195
g2173
Ntp5040
Rp5041
(lp5042
F0.0
aF0.0
aF-0.9738717151759202
aF0.22709883835086292
ababag2171
(g2187
g2173
Ntp5043
Rp5044
(lp5045
g2171
(g2191
g2173
Ntp5046
Rp5047
(lp5048
F15.588477185994286
aF13.053928072337106
aI0
abag2171
(g2195
g2173
Ntp5049
Rp5050
(lp5051
F0.0
aF0.0
aF-0.9738717151759202
aF0.22709883835086292
ababag2171
(g2187
g2173
Ntp5052
Rp5053
(lp5054
g2171
(g2191
g2173
Ntp5055
Rp5056
(lp5057
F15.319421515422473
aF12.921228991205577
aI0
abag2171
(g2195
g2173
Ntp5058
Rp5059
(lp5060
F0.0
aF0.0
aF-0.9738717151759202
aF0.22709883835086292
ababag2171
(g2187
g2173
Ntp5061
Rp5062
(lp5063
g2171
(g2191
g2173
Ntp5064
Rp5065
(lp5066
F15.050365844850658
aF12.78852991007405
aI0
abag2171
(g2195
g2173
Ntp5067
Rp5068
(lp5069
F0.0
aF0.0
aF-0.9738717151759202
aF0.22709883835086292
ababag2171
(g2187
g2173
Ntp5070
Rp5071
(lp5072
g2171
(g2191
g2173
Ntp5073
Rp5074
(lp5075
F14.781310174278847
aF12.655830828942522
aI0
abag2171
(g2195
g2173
Ntp5076
Rp5077
(lp5078
F0.0
aF0.0
aF-0.9738717151759202
aF0.22709883835086292
ababag2171
(g2187
g2173
Ntp5079
Rp5080
(lp5081
g2171
(g2191
g2173
Ntp5082
Rp5083
(lp5084
F14.512254503707034
aF12.523131747810993
aI0
abag2171
(g2195
g2173
Ntp5085
Rp5086
(lp5087
F0.0
aF0.0
aF-0.9738717151759202
aF0.22709883835086292
ababag2171
(g2187
g2173
Ntp5088
Rp5089
(lp5090
g2171
(g2191
g2173
Ntp5091
Rp5092
(lp5093
F14.24319883313522
aF12.390432666679464
aI0
abag2171
(g2195
g2173
Ntp5094
Rp5095
(lp5096
F0.0
aF0.0
aF-0.9738717151759202
aF0.22709883835086292
ababag2171
(g2187
g2173
Ntp5097
Rp5098
(lp5099
g2171
(g2191
g2173
Ntp5100
Rp5101
(lp5102
F13.974143162563408
aF12.257733585547935
aI0
abag2171
(g2195
g2173
Ntp5103
Rp5104
(lp5105
F0.0
aF0.0
aF-0.9738717151759202
aF0.22709883835086292
ababag2171
(g2187
g2173
Ntp5106
Rp5107
(lp5108
g2171
(g2191
g2173
Ntp5109
Rp5110
(lp5111
F13.705087491991593
aF12.125034504416409
aI0
abag2171
(g2195
g2173
Ntp5112
Rp5113
(lp5114
F0.0
aF0.0
aF-0.9738717151759202
aF0.22709883835086292
ababag2171
(g2187
g2173
Ntp5115
Rp5116
(lp5117
g2171
(g2191
g2173
Ntp5118
Rp5119
(lp5120
F13.436031821419778
aF11.99233542328488
aI0
abag2171
(g2195
g2173
Ntp5121
Rp5122
(lp5123
F0.0
aF0.0
aF-0.9738717151759202
aF0.22709883835086292
ababag2171
(g2187
g2173
Ntp5124
Rp5125
(lp5126
g2171
(g2191
g2173
Ntp5127
Rp5128
(lp5129
F13.166976150847965
aF11.859636342153351
aI0
abag2171
(g2195
g2173
Ntp5130
Rp5131
(lp5132
F0.0
aF0.0
aF-0.9738717151759202
aF0.22709883835086292
ababag2171
(g2187
g2173
Ntp5133
Rp5134
(lp5135
g2171
(g2191
g2173
Ntp5136
Rp5137
(lp5138
F13.126792354382111
aF11.839817570610412
aI0
abag2171
(g2195
g2173
Ntp5139
Rp5140
(lp5141
F0.0
aF0.0
aF-0.9738717151759202
aF0.22709883835086292
ababag2171
(g2187
g2173
Ntp5142
Rp5143
(lp5144
g2171
(g2191
g2173
Ntp5145
Rp5146
(lp5147
F13.112704632414195
aF11.832869462970063
aI0
abag2171
(g2195
g2173
Ntp5148
Rp5149
(lp5150
F0.0
aF0.0
aF-0.9675932391098296
aF0.2525140067975399
ababag2171
(g2187
g2173
Ntp5151
Rp5152
(lp5153
g2171
(g2191
g2173
Ntp5154
Rp5155
(lp5156
F13.098999853037055
aF11.82519358306928
aI0
abag2171
(g2195
g2173
Ntp5157
Rp5158
(lp5159
F0.0
aF0.0
aF-0.9606516229700139
aF0.2777561147573141
ababag2171
(g2187
g2173
Ntp5160
Rp5161
(lp5162
g2171
(g2191
g2173
Ntp5163
Rp5164
(lp5165
F13.085715580098366
aF11.81681096996133
aI0
abag2171
(g2195
g2173
Ntp5166
Rp5167
(lp5168
F0.0
aF0.0
aF-0.9530516241934338
aF0.302807862550261
ababag2171
(g2187
g2173
Ntp5169
Rp5170
(lp5171
g2171
(g2191
g2173
Ntp5172
Rp5173
(lp5174
F13.072888224866867
aF11.807744599806071
aI0
abag2171
(g2195
g2173
Ntp5175
Rp5176
(lp5177
F0.0
aF0.0
aF-0.9447984514396225
aF0.32765208095980614
ababag2171
(g2187
g2173
Ntp5178
Rp5179
(lp5180
g2171
(g2191
g2173
Ntp5181
Rp5182
(lp5183
F13.060552946231633
aF11.798019322893904
aI0
abag2171
(g2195
g2173
Ntp5184
Rp5185
(lp5186
F0.0
aF0.0
aF-0.93589776102093
aF0.35227174299964825
ababag2171
(g2187
g2173
Ntp5187
Rp5188
(lp5189
g2171
(g2191
g2173
Ntp5190
Rp5191
(lp5192
F13.048743554333985
aF11.787661795532848
aI0
abag2171
(g2195
g2173
Ntp5193
Rp5194
(lp5195
F0.0
aF0.0
aF-0.9263556530259701
aF0.3766499755832044
ababag2171
(g2187
g2173
Ntp5196
Rp5197
(lp5198
g2171
(g2191
g2173
Ntp5199
Rp5200
(lp5201
F13.037492417896257
aF11.776700406985459
aI0
abag2171
(g2195
g2173
Ntp5202
Rp5203
(lp5204
F0.0
aF0.0
aF-0.9161786671389235
aF0.4007700710875821
ababag2171
(g2187
g2173
Ntp5205
Rp5206
(lp5207
g2171
(g2191
g2173
Ntp5208
Rp5209
(lp5210
F13.026830375501365
aF11.765165201655826
aI0
abag2171
(g2195
g2173
Ntp5211
Rp5212
(lp5213
F0.0
aF0.0
aF-0.9053737781575655
aF0.4246154988041479
ababag2171
(g2187
g2173
Ntp5214
Rp5215
(lp5216
g2171
(g2191
g2173
Ntp5217
Rp5218
(lp5219
F13.016786651066406
aF11.753087796739957
aI0
abag2171
(g2195
g2173
Ntp5220
Rp5221
(lp5222
F0.0
aF0.0
aF-0.8939483912130877
aF0.4481699162678508
ababag2171
(g2187
g2173
Ntp5223
Rp5224
(lp5225
g2171
(g2191
g2173
Ntp5226
Rp5227
(lp5228
F13.007388773741926
aF11.740501295565236
aI0
abag2171
(g2195
g2173
Ntp5229
Rp5230
(lp5231
F0.0
aF0.0
aF-0.8819103366949909
aF0.4714171804575305
ababag2171
(g2187
g2173
Ntp5232
Rp5233
(lp5234
g2171
(g2191
g2173
Ntp5235
Rp5236
(lp5237
F12.99866250245643
aF11.727440196856506
aI0
abag2171
(g2195
g2173
Ntp5238
Rp5239
(lp5240
F0.0
aF0.0
aF-0.8692678648845275
aF0.4943413588595384
ababag2171
(g2187
g2173
Ntp5241
Rp5242
(lp5243
g2171
(g2191
g2173
Ntp5244
Rp5245
(lp5246
F12.996661926467004
aF11.724077176122156
aI0
abag2171
(g2195
g2173
Ntp5247
Rp5248
(lp5249
F0.0
aF0.0
aF-0.8660254037844387
aF0.4999999999999999
ababag2171
(g2187
g2173
Ntp5250
Rp5251
(lp5252
g2171
(g2191
g2173
Ntp5253
Rp5254
(lp5255
F12.999999709427357
aF11.719999738037586
aI0
abag2171
(g2195
g2173
Ntp5256
Rp5257
(lp5258
F0.0
aF0.0
aF-0.8660254037844387
aF0.4999999999999999
ababag2171
(g2187
g2173
Ntp5259
Rp5260
(lp5261
g2171
(g2191
g2173
Ntp5262
Rp5263
(lp5264
F12.992145727793382
aF11.70639624280583
aI0
abag2171
(g2195
g2173
Ntp5265
Rp5266
(lp5267
F0.0
aF0.0
aF-0.8788171126619654
aF0.4771587602596084
ababag2171
(g2187
g2173
Ntp5268
Rp5269
(lp5270
g2171
(g2191
g2173
Ntp5271
Rp5272
(lp5273
F12.998601610607722
aF11.716337430562124
aI0
abag2171
(g2195
g2173
Ntp5274
Rp5275
(lp5276
F0.0
aF0.0
aF-0.8692195583469147
aF0.4944262931794734
ababag2171
(g2187
g2173
Ntp5277
Rp5278
(lp5279
g2171
(g2191
g2173
Ntp5280
Rp5281
(lp5282
F12.845276026240038
aF11.458478428046584
aI0
abag2171
(g2195
g2173
Ntp5283
Rp5284
(lp5285
F0.0
aF0.0
aF-0.8692195583469147
aF0.4944262931794734
ababag2171
(g2187
g2173
Ntp5286
Rp5287
(lp5288
g2171
(g2191
g2173
Ntp5289
Rp5290
(lp5291
F12.691950441872354
aF11.200619425531047
aI0
abag2171
(g2195
g2173
Ntp5292
Rp5293
(lp5294
F0.0
aF0.0
aF-0.8692195583469147
aF0.4944262931794734
ababag2171
(g2187
g2173
Ntp5295
Rp5296
(lp5297
g2171
(g2191
g2173
Ntp5298
Rp5299
(lp5300
F12.538624857504672
aF10.942760423015509
aI0
abag2171
(g2195
g2173
Ntp5301
Rp5302
(lp5303
F0.0
aF0.0
aF-0.8692195583469147
aF0.4944262931794734
ababag2171
(g2187
g2173
Ntp5304
Rp5305
(lp5306
g2171
(g2191
g2173
Ntp5307
Rp5308
(lp5309
F12.385299273136988
aF10.684901420499969
aI0
abag2171
(g2195
g2173
Ntp5310
Rp5311
(lp5312
F0.0
aF0.0
aF-0.8692195583469147
aF0.4944262931794734
ababag2171
(g2187
g2173
Ntp5313
Rp5314
(lp5315
g2171
(g2191
g2173
Ntp5316
Rp5317
(lp5318
F12.231973688769305
aF10.427042417984431
aI0
abag2171
(g2195
g2173
Ntp5319
Rp5320
(lp5321
F0.0
aF0.0
aF-0.8692195583469147
aF0.4944262931794734
ababag2171
(g2187
g2173
Ntp5322
Rp5323
(lp5324
g2171
(g2191
g2173
Ntp5325
Rp5326
(lp5327
F12.078648104401621
aF10.169183415468893
aI0
abag2171
(g2195
g2173
Ntp5328
Rp5329
(lp5330
F0.0
aF0.0
aF-0.8692195583469147
aF0.4944262931794734
ababag2171
(g2187
g2173
Ntp5331
Rp5332
(lp5333
g2171
(g2191
g2173
Ntp5334
Rp5335
(lp5336
F11.925322520033939
aF9.911324412953356
aI0
abag2171
(g2195
g2173
Ntp5337
Rp5338
(lp5339
F0.0
aF0.0
aF-0.8692195583469147
aF0.4944262931794734
ababag2171
(g2187
g2173
Ntp5340
Rp5341
(lp5342
g2171
(g2191
g2173
Ntp5343
Rp5344
(lp5345
F11.771996935666255
aF9.653465410437816
aI0
abag2171
(g2195
g2173
Ntp5346
Rp5347
(lp5348
F0.0
aF0.0
aF-0.8692195583469147
aF0.4944262931794734
ababag2171
(g2187
g2173
Ntp5349
Rp5350
(lp5351
g2171
(g2191
g2173
Ntp5352
Rp5353
(lp5354
F11.618671351298572
aF9.395606407922278
aI0
abag2171
(g2195
g2173
Ntp5355
Rp5356
(lp5357
F0.0
aF0.0
aF-0.8692195583469147
aF0.4944262931794734
ababag2171
(g2187
g2173
Ntp5358
Rp5359
(lp5360
g2171
(g2191
g2173
Ntp5361
Rp5362
(lp5363
F11.465345766930888
aF9.137747405406738
aI0
abag2171
(g2195
g2173
Ntp5364
Rp5365
(lp5366
F0.0
aF0.0
aF-0.8692195583469147
aF0.4944262931794734
ababag2171
(g2187
g2173
Ntp5367
Rp5368
(lp5369
g2171
(g2191
g2173
Ntp5370
Rp5371
(lp5372
F11.312020182563206
aF8.8798884028912
aI0
abag2171
(g2195
g2173
Ntp5373
Rp5374
(lp5375
F0.0
aF0.0
aF-0.8692195583469147
aF0.4944262931794734
ababag2171
(g2187
g2173
Ntp5376
Rp5377
(lp5378
g2171
(g2191
g2173
Ntp5379
Rp5380
(lp5381
F11.158694598195522
aF8.622029400375663
aI0
abag2171
(g2195
g2173
Ntp5382
Rp5383
(lp5384
F0.0
aF0.0
aF-0.8692195583469147
aF0.4944262931794734
ababag2171
(g2187
g2173
Ntp5385
Rp5386
(lp5387
g2171
(g2191
g2173
Ntp5388
Rp5389
(lp5390
F11.005369013827838
aF8.364170397860125
aI0
abag2171
(g2195
g2173
Ntp5391
Rp5392
(lp5393
F0.0
aF0.0
aF-0.8692195583469147
aF0.4944262931794734
ababag2171
(g2187
g2173
Ntp5394
Rp5395
(lp5396
g2171
(g2191
g2173
Ntp5397
Rp5398
(lp5399
F10.852043429460156
aF8.106311395344587
aI0
abag2171
(g2195
g2173
Ntp5400
Rp5401
(lp5402
F0.0
aF0.0
aF-0.8692195583469147
aF0.4944262931794734
ababag2171
(g2187
g2173
Ntp5403
Rp5404
(lp5405
g2171
(g2191
g2173
Ntp5406
Rp5407
(lp5408
F10.802498897021142
aF8.022988681998934
aI0
abag2171
(g2195
g2173
Ntp5409
Rp5410
(lp5411
F0.0
aF0.0
aF-0.8692195583469147
aF0.4944262931794734
ababag2171
(g2187
g2173
Ntp5412
Rp5413
(lp5414
g2171
(g2191
g2173
Ntp5415
Rp5416
(lp5417
F10.79447078819686
aF8.00948721619952
aI0
abag2171
(g2195
g2173
Ntp5418
Rp5419
(lp5420
F0.0
aF0.0
aF-0.8559791269948996
aF0.5170103810844124
ababag2171
(g2187
g2173
Ntp5421
Rp5422
(lp5423
g2171
(g2191
g2173
Ntp5424
Rp5425
(lp5426
F10.799987416828364
aF8.019978757814576
aI0
abag2171
(g2195
g2173
Ntp5427
Rp5428
(lp5429
F0.0
aF0.0
aF-0.8660254037844387
aF0.4999999999999999
ababaaba.